
ant_kit.elf:     file format elf32-avr

Sections:
Idx Name          Size      VMA       LMA       File off  Algn
  0 .data         00000016  00800100  00001150  000011e4  2**0
                  CONTENTS, ALLOC, LOAD, DATA
  1 .text         00001150  00000000  00000000  00000094  2**1
                  CONTENTS, ALLOC, LOAD, READONLY, CODE
  2 .bss          0000005b  00800116  00800116  000011fa  2**0
                  ALLOC
  3 .stab         000006cc  00000000  00000000  000011fc  2**2
                  CONTENTS, READONLY, DEBUGGING
  4 .stabstr      00000090  00000000  00000000  000018c8  2**0
                  CONTENTS, READONLY, DEBUGGING
  5 .debug_aranges 00000040  00000000  00000000  00001958  2**0
                  CONTENTS, READONLY, DEBUGGING
  6 .debug_pubnames 00000038  00000000  00000000  00001998  2**0
                  CONTENTS, READONLY, DEBUGGING
  7 .debug_info   000002cf  00000000  00000000  000019d0  2**0
                  CONTENTS, READONLY, DEBUGGING
  8 .debug_abbrev 000001b2  00000000  00000000  00001c9f  2**0
                  CONTENTS, READONLY, DEBUGGING
  9 .debug_line   00000304  00000000  00000000  00001e51  2**0
                  CONTENTS, READONLY, DEBUGGING
 10 .debug_frame  00000040  00000000  00000000  00002158  2**2
                  CONTENTS, READONLY, DEBUGGING
 11 .debug_str    0000012e  00000000  00000000  00002198  2**0
                  CONTENTS, READONLY, DEBUGGING
 12 .debug_loc    000000b0  00000000  00000000  000022c6  2**0
                  CONTENTS, READONLY, DEBUGGING
 13 .debug_pubtypes 00000052  00000000  00000000  00002376  2**0
                  CONTENTS, READONLY, DEBUGGING
 14 .debug_ranges 00000020  00000000  00000000  000023c8  2**0
                  CONTENTS, READONLY, DEBUGGING

Disassembly of section .text:

00000000 <__vectors>:
       0:	19 c0       	rjmp	.+50     	; 0x34 <__ctors_end>
       2:	33 c0       	rjmp	.+102    	; 0x6a <__bad_interrupt>
       4:	32 c0       	rjmp	.+100    	; 0x6a <__bad_interrupt>
       6:	31 c0       	rjmp	.+98     	; 0x6a <__bad_interrupt>
       8:	30 c0       	rjmp	.+96     	; 0x6a <__bad_interrupt>
       a:	2f c0       	rjmp	.+94     	; 0x6a <__bad_interrupt>
       c:	32 c7       	rjmp	.+3684   	; 0xe72 <__vector_6>
       e:	2d c0       	rjmp	.+90     	; 0x6a <__bad_interrupt>
      10:	2c c0       	rjmp	.+88     	; 0x6a <__bad_interrupt>
      12:	2b c0       	rjmp	.+86     	; 0x6a <__bad_interrupt>
      14:	2a c0       	rjmp	.+84     	; 0x6a <__bad_interrupt>
      16:	29 c0       	rjmp	.+82     	; 0x6a <__bad_interrupt>
      18:	28 c0       	rjmp	.+80     	; 0x6a <__bad_interrupt>
      1a:	71 c7       	rjmp	.+3810   	; 0xefe <__vector_13>
      1c:	26 c0       	rjmp	.+76     	; 0x6a <__bad_interrupt>
      1e:	25 c0       	rjmp	.+74     	; 0x6a <__bad_interrupt>
      20:	24 c0       	rjmp	.+72     	; 0x6a <__bad_interrupt>
      22:	23 c0       	rjmp	.+70     	; 0x6a <__bad_interrupt>
      24:	22 c0       	rjmp	.+68     	; 0x6a <__bad_interrupt>
      26:	21 c0       	rjmp	.+66     	; 0x6a <__bad_interrupt>
      28:	20 c0       	rjmp	.+64     	; 0x6a <__bad_interrupt>
      2a:	1f c0       	rjmp	.+62     	; 0x6a <__bad_interrupt>
      2c:	1e c0       	rjmp	.+60     	; 0x6a <__bad_interrupt>
      2e:	1d c0       	rjmp	.+58     	; 0x6a <__bad_interrupt>
      30:	1c c0       	rjmp	.+56     	; 0x6a <__bad_interrupt>
      32:	1b c0       	rjmp	.+54     	; 0x6a <__bad_interrupt>

00000034 <__ctors_end>:
      34:	11 24       	eor	r1, r1
      36:	1f be       	out	0x3f, r1	; 63
      38:	cf ef       	ldi	r28, 0xFF	; 255
      3a:	d4 e0       	ldi	r29, 0x04	; 4
      3c:	de bf       	out	0x3e, r29	; 62
      3e:	cd bf       	out	0x3d, r28	; 61

00000040 <__do_copy_data>:
      40:	11 e0       	ldi	r17, 0x01	; 1
      42:	a0 e0       	ldi	r26, 0x00	; 0
      44:	b1 e0       	ldi	r27, 0x01	; 1
      46:	e0 e5       	ldi	r30, 0x50	; 80
      48:	f1 e1       	ldi	r31, 0x11	; 17
      4a:	02 c0       	rjmp	.+4      	; 0x50 <__do_copy_data+0x10>
      4c:	05 90       	lpm	r0, Z+
      4e:	0d 92       	st	X+, r0
      50:	a6 31       	cpi	r26, 0x16	; 22
      52:	b1 07       	cpc	r27, r17
      54:	d9 f7       	brne	.-10     	; 0x4c <__do_copy_data+0xc>

00000056 <__do_clear_bss>:
      56:	11 e0       	ldi	r17, 0x01	; 1
      58:	a6 e1       	ldi	r26, 0x16	; 22
      5a:	b1 e0       	ldi	r27, 0x01	; 1
      5c:	01 c0       	rjmp	.+2      	; 0x60 <.do_clear_bss_start>

0000005e <.do_clear_bss_loop>:
      5e:	1d 92       	st	X+, r1

00000060 <.do_clear_bss_start>:
      60:	a1 37       	cpi	r26, 0x71	; 113
      62:	b1 07       	cpc	r27, r17
      64:	e1 f7       	brne	.-8      	; 0x5e <.do_clear_bss_loop>
      66:	d3 d5       	rcall	.+2982   	; 0xc0e <main>
      68:	71 c8       	rjmp	.-3870   	; 0xfffff14c <__eeprom_end+0xff7ef14c>

0000006a <__bad_interrupt>:
      6a:	ca cf       	rjmp	.-108    	; 0x0 <__vectors>

0000006c <Serial_Put_Tx_Buffer>:
      6c:	4a 99       	sbic	0x09, 2	; 9
      6e:	fe cf       	rjmp	.-4      	; 0x6c <Serial_Put_Tx_Buffer>
      70:	84 ea       	ldi	r24, 0xA4	; 164
      72:	80 93 34 01 	sts	0x0134, r24
      76:	80 91 35 01 	lds	r24, 0x0135
      7a:	8d 5f       	subi	r24, 0xFD	; 253
      7c:	80 93 43 01 	sts	0x0143, r24
      80:	10 92 42 01 	sts	0x0142, r1
      84:	10 92 41 01 	sts	0x0141, r1
      88:	e0 91 42 01 	lds	r30, 0x0142
      8c:	f0 e0       	ldi	r31, 0x00	; 0
      8e:	ec 5c       	subi	r30, 0xCC	; 204
      90:	fe 4f       	sbci	r31, 0xFE	; 254
      92:	80 81       	ld	r24, Z
      94:	90 e0       	ldi	r25, 0x00	; 0
      96:	68 e0       	ldi	r22, 0x08	; 8
      98:	71 e0       	ldi	r23, 0x01	; 1
      9a:	2c d8       	rcall	.-4008   	; 0xfffff0f4 <__eeprom_end+0xff7ef0f4>
      9c:	80 91 41 01 	lds	r24, 0x0141
      a0:	90 91 42 01 	lds	r25, 0x0142
      a4:	e9 2f       	mov	r30, r25
      a6:	f0 e0       	ldi	r31, 0x00	; 0
      a8:	ec 5c       	subi	r30, 0xCC	; 204
      aa:	fe 4f       	sbci	r31, 0xFE	; 254
      ac:	20 81       	ld	r18, Z
      ae:	82 27       	eor	r24, r18
      b0:	80 93 41 01 	sts	0x0141, r24
      b4:	9f 5f       	subi	r25, 0xFF	; 255
      b6:	90 93 42 01 	sts	0x0142, r25
      ba:	20 91 43 01 	lds	r18, 0x0143
      be:	92 17       	cp	r25, r18
      c0:	18 f3       	brcs	.-58     	; 0x88 <Serial_Put_Tx_Buffer+0x1c>
      c2:	90 e0       	ldi	r25, 0x00	; 0
      c4:	68 e0       	ldi	r22, 0x08	; 8
      c6:	71 e0       	ldi	r23, 0x01	; 1
      c8:	15 d8       	rcall	.-4054   	; 0xfffff0f4 <__eeprom_end+0xff7ef0f4>
      ca:	08 95       	ret

000000cc <cygANT_WaitForResponse>:
      cc:	00 97       	sbiw	r24, 0x00	; 0
      ce:	59 f0       	breq	.+22     	; 0xe6 <cygANT_WaitForResponse+0x1a>
      d0:	fc 01       	movw	r30, r24
      d2:	24 81       	ldd	r18, Z+4	; 0x04
      d4:	22 23       	and	r18, r18
      d6:	51 f0       	breq	.+20     	; 0xec <cygANT_WaitForResponse+0x20>
      d8:	07 96       	adiw	r24, 0x07	; 7
      da:	8c d7       	rcall	.+3864   	; 0xff4 <timer_expired>
      dc:	00 97       	sbiw	r24, 0x00	; 0
      de:	49 f0       	breq	.+18     	; 0xf2 <cygANT_WaitForResponse+0x26>
      e0:	21 e0       	ldi	r18, 0x01	; 1
      e2:	30 e0       	ldi	r19, 0x00	; 0
      e4:	08 c0       	rjmp	.+16     	; 0xf6 <cygANT_WaitForResponse+0x2a>
      e6:	2f ef       	ldi	r18, 0xFF	; 255
      e8:	3f ef       	ldi	r19, 0xFF	; 255
      ea:	05 c0       	rjmp	.+10     	; 0xf6 <cygANT_WaitForResponse+0x2a>
      ec:	20 e0       	ldi	r18, 0x00	; 0
      ee:	30 e0       	ldi	r19, 0x00	; 0
      f0:	02 c0       	rjmp	.+4      	; 0xf6 <cygANT_WaitForResponse+0x2a>
      f2:	22 e0       	ldi	r18, 0x02	; 2
      f4:	30 e0       	ldi	r19, 0x00	; 0
      f6:	c9 01       	movw	r24, r18
      f8:	08 95       	ret

000000fa <cygANT_UnAssignChannel>:
      fa:	91 e0       	ldi	r25, 0x01	; 1
      fc:	90 93 35 01 	sts	0x0135, r25
     100:	61 e4       	ldi	r22, 0x41	; 65
     102:	60 93 36 01 	sts	0x0136, r22
     106:	80 93 37 01 	sts	0x0137, r24
     10a:	48 2f       	mov	r20, r24
     10c:	50 e0       	ldi	r21, 0x00	; 0
     10e:	9a 01       	movw	r18, r20
     110:	74 e0       	ldi	r23, 0x04	; 4
     112:	22 0f       	add	r18, r18
     114:	33 1f       	adc	r19, r19
     116:	7a 95       	dec	r23
     118:	e1 f7       	brne	.-8      	; 0x112 <cygANT_UnAssignChannel+0x18>
     11a:	24 1b       	sub	r18, r20
     11c:	35 0b       	sbc	r19, r21
     11e:	f9 01       	movw	r30, r18
     120:	ee 5a       	subi	r30, 0xAE	; 174
     122:	fe 4f       	sbci	r31, 0xFE	; 254
     124:	89 f0       	breq	.+34     	; 0x148 <cygANT_UnAssignChannel+0x4e>
     126:	61 83       	std	Z+1, r22	; 0x01
     128:	40 e4       	ldi	r20, 0x40	; 64
     12a:	42 83       	std	Z+2, r20	; 0x02
     12c:	80 83       	st	Z, r24
     12e:	94 83       	std	Z+4, r25	; 0x04
     130:	8a e0       	ldi	r24, 0x0A	; 10
     132:	90 e0       	ldi	r25, 0x00	; 0
     134:	96 83       	std	Z+6, r25	; 0x06
     136:	85 83       	std	Z+5, r24	; 0x05
     138:	c9 01       	movw	r24, r18
     13a:	87 5a       	subi	r24, 0xA7	; 167
     13c:	9e 4f       	sbci	r25, 0xFE	; 254
     13e:	4a e0       	ldi	r20, 0x0A	; 10
     140:	50 e0       	ldi	r21, 0x00	; 0
     142:	60 e0       	ldi	r22, 0x00	; 0
     144:	70 e0       	ldi	r23, 0x00	; 0
     146:	2a d7       	rcall	.+3668   	; 0xf9c <timer_set>
     148:	91 df       	rcall	.-222    	; 0x6c <Serial_Put_Tx_Buffer>
     14a:	81 e0       	ldi	r24, 0x01	; 1
     14c:	08 95       	ret

0000014e <cygANT_AssignChannel>:
     14e:	93 e0       	ldi	r25, 0x03	; 3
     150:	90 93 35 01 	sts	0x0135, r25
     154:	92 e4       	ldi	r25, 0x42	; 66
     156:	90 93 36 01 	sts	0x0136, r25
     15a:	80 93 37 01 	sts	0x0137, r24
     15e:	60 93 38 01 	sts	0x0138, r22
     162:	40 93 39 01 	sts	0x0139, r20
     166:	48 2f       	mov	r20, r24
     168:	50 e0       	ldi	r21, 0x00	; 0
     16a:	9a 01       	movw	r18, r20
     16c:	e4 e0       	ldi	r30, 0x04	; 4
     16e:	22 0f       	add	r18, r18
     170:	33 1f       	adc	r19, r19
     172:	ea 95       	dec	r30
     174:	e1 f7       	brne	.-8      	; 0x16e <cygANT_AssignChannel+0x20>
     176:	24 1b       	sub	r18, r20
     178:	35 0b       	sbc	r19, r21
     17a:	f9 01       	movw	r30, r18
     17c:	ee 5a       	subi	r30, 0xAE	; 174
     17e:	fe 4f       	sbci	r31, 0xFE	; 254
     180:	91 f0       	breq	.+36     	; 0x1a6 <cygANT_AssignChannel+0x58>
     182:	91 83       	std	Z+1, r25	; 0x01
     184:	90 e4       	ldi	r25, 0x40	; 64
     186:	92 83       	std	Z+2, r25	; 0x02
     188:	80 83       	st	Z, r24
     18a:	81 e0       	ldi	r24, 0x01	; 1
     18c:	84 83       	std	Z+4, r24	; 0x04
     18e:	8a e0       	ldi	r24, 0x0A	; 10
     190:	90 e0       	ldi	r25, 0x00	; 0
     192:	96 83       	std	Z+6, r25	; 0x06
     194:	85 83       	std	Z+5, r24	; 0x05
     196:	c9 01       	movw	r24, r18
     198:	87 5a       	subi	r24, 0xA7	; 167
     19a:	9e 4f       	sbci	r25, 0xFE	; 254
     19c:	4a e0       	ldi	r20, 0x0A	; 10
     19e:	50 e0       	ldi	r21, 0x00	; 0
     1a0:	60 e0       	ldi	r22, 0x00	; 0
     1a2:	70 e0       	ldi	r23, 0x00	; 0
     1a4:	fb d6       	rcall	.+3574   	; 0xf9c <timer_set>
     1a6:	62 df       	rcall	.-316    	; 0x6c <Serial_Put_Tx_Buffer>
     1a8:	81 e0       	ldi	r24, 0x01	; 1
     1aa:	08 95       	ret

000001ac <cygANT_SetChannelId>:
     1ac:	95 e0       	ldi	r25, 0x05	; 5
     1ae:	90 93 35 01 	sts	0x0135, r25
     1b2:	91 e5       	ldi	r25, 0x51	; 81
     1b4:	90 93 36 01 	sts	0x0136, r25
     1b8:	80 93 37 01 	sts	0x0137, r24
     1bc:	60 93 38 01 	sts	0x0138, r22
     1c0:	70 93 39 01 	sts	0x0139, r23
     1c4:	40 93 3a 01 	sts	0x013A, r20
     1c8:	20 93 3b 01 	sts	0x013B, r18
     1cc:	48 2f       	mov	r20, r24
     1ce:	50 e0       	ldi	r21, 0x00	; 0
     1d0:	9a 01       	movw	r18, r20
     1d2:	f4 e0       	ldi	r31, 0x04	; 4
     1d4:	22 0f       	add	r18, r18
     1d6:	33 1f       	adc	r19, r19
     1d8:	fa 95       	dec	r31
     1da:	e1 f7       	brne	.-8      	; 0x1d4 <cygANT_SetChannelId+0x28>
     1dc:	24 1b       	sub	r18, r20
     1de:	35 0b       	sbc	r19, r21
     1e0:	f9 01       	movw	r30, r18
     1e2:	ee 5a       	subi	r30, 0xAE	; 174
     1e4:	fe 4f       	sbci	r31, 0xFE	; 254
     1e6:	91 f0       	breq	.+36     	; 0x20c <cygANT_SetChannelId+0x60>
     1e8:	91 83       	std	Z+1, r25	; 0x01
     1ea:	90 e4       	ldi	r25, 0x40	; 64
     1ec:	92 83       	std	Z+2, r25	; 0x02
     1ee:	80 83       	st	Z, r24
     1f0:	81 e0       	ldi	r24, 0x01	; 1
     1f2:	84 83       	std	Z+4, r24	; 0x04
     1f4:	8a e0       	ldi	r24, 0x0A	; 10
     1f6:	90 e0       	ldi	r25, 0x00	; 0
     1f8:	96 83       	std	Z+6, r25	; 0x06
     1fa:	85 83       	std	Z+5, r24	; 0x05
     1fc:	c9 01       	movw	r24, r18
     1fe:	87 5a       	subi	r24, 0xA7	; 167
     200:	9e 4f       	sbci	r25, 0xFE	; 254
     202:	4a e0       	ldi	r20, 0x0A	; 10
     204:	50 e0       	ldi	r21, 0x00	; 0
     206:	60 e0       	ldi	r22, 0x00	; 0
     208:	70 e0       	ldi	r23, 0x00	; 0
     20a:	c8 d6       	rcall	.+3472   	; 0xf9c <timer_set>
     20c:	2f df       	rcall	.-418    	; 0x6c <Serial_Put_Tx_Buffer>
     20e:	81 e0       	ldi	r24, 0x01	; 1
     210:	08 95       	ret

00000212 <cygANT_SetChannelPeriod>:
     212:	93 e0       	ldi	r25, 0x03	; 3
     214:	90 93 35 01 	sts	0x0135, r25
     218:	93 e4       	ldi	r25, 0x43	; 67
     21a:	90 93 36 01 	sts	0x0136, r25
     21e:	80 93 37 01 	sts	0x0137, r24
     222:	60 93 38 01 	sts	0x0138, r22
     226:	70 93 39 01 	sts	0x0139, r23
     22a:	48 2f       	mov	r20, r24
     22c:	50 e0       	ldi	r21, 0x00	; 0
     22e:	9a 01       	movw	r18, r20
     230:	a4 e0       	ldi	r26, 0x04	; 4
     232:	22 0f       	add	r18, r18
     234:	33 1f       	adc	r19, r19
     236:	aa 95       	dec	r26
     238:	e1 f7       	brne	.-8      	; 0x232 <cygANT_SetChannelPeriod+0x20>
     23a:	24 1b       	sub	r18, r20
     23c:	35 0b       	sbc	r19, r21
     23e:	f9 01       	movw	r30, r18
     240:	ee 5a       	subi	r30, 0xAE	; 174
     242:	fe 4f       	sbci	r31, 0xFE	; 254
     244:	91 f0       	breq	.+36     	; 0x26a <cygANT_SetChannelPeriod+0x58>
     246:	91 83       	std	Z+1, r25	; 0x01
     248:	90 e4       	ldi	r25, 0x40	; 64
     24a:	92 83       	std	Z+2, r25	; 0x02
     24c:	80 83       	st	Z, r24
     24e:	81 e0       	ldi	r24, 0x01	; 1
     250:	84 83       	std	Z+4, r24	; 0x04
     252:	8a e0       	ldi	r24, 0x0A	; 10
     254:	90 e0       	ldi	r25, 0x00	; 0
     256:	96 83       	std	Z+6, r25	; 0x06
     258:	85 83       	std	Z+5, r24	; 0x05
     25a:	c9 01       	movw	r24, r18
     25c:	87 5a       	subi	r24, 0xA7	; 167
     25e:	9e 4f       	sbci	r25, 0xFE	; 254
     260:	4a e0       	ldi	r20, 0x0A	; 10
     262:	50 e0       	ldi	r21, 0x00	; 0
     264:	60 e0       	ldi	r22, 0x00	; 0
     266:	70 e0       	ldi	r23, 0x00	; 0
     268:	99 d6       	rcall	.+3378   	; 0xf9c <timer_set>
     26a:	00 df       	rcall	.-512    	; 0x6c <Serial_Put_Tx_Buffer>
     26c:	81 e0       	ldi	r24, 0x01	; 1
     26e:	08 95       	ret

00000270 <cygANT_SetChannelSearchTimeout>:
     270:	92 e0       	ldi	r25, 0x02	; 2
     272:	90 93 35 01 	sts	0x0135, r25
     276:	94 e4       	ldi	r25, 0x44	; 68
     278:	90 93 36 01 	sts	0x0136, r25
     27c:	80 93 37 01 	sts	0x0137, r24
     280:	60 93 38 01 	sts	0x0138, r22
     284:	48 2f       	mov	r20, r24
     286:	50 e0       	ldi	r21, 0x00	; 0
     288:	9a 01       	movw	r18, r20
     28a:	b4 e0       	ldi	r27, 0x04	; 4
     28c:	22 0f       	add	r18, r18
     28e:	33 1f       	adc	r19, r19
     290:	ba 95       	dec	r27
     292:	e1 f7       	brne	.-8      	; 0x28c <cygANT_SetChannelSearchTimeout+0x1c>
     294:	24 1b       	sub	r18, r20
     296:	35 0b       	sbc	r19, r21
     298:	f9 01       	movw	r30, r18
     29a:	ee 5a       	subi	r30, 0xAE	; 174
     29c:	fe 4f       	sbci	r31, 0xFE	; 254
     29e:	91 f0       	breq	.+36     	; 0x2c4 <cygANT_SetChannelSearchTimeout+0x54>
     2a0:	91 83       	std	Z+1, r25	; 0x01
     2a2:	90 e4       	ldi	r25, 0x40	; 64
     2a4:	92 83       	std	Z+2, r25	; 0x02
     2a6:	80 83       	st	Z, r24
     2a8:	81 e0       	ldi	r24, 0x01	; 1
     2aa:	84 83       	std	Z+4, r24	; 0x04
     2ac:	8a e0       	ldi	r24, 0x0A	; 10
     2ae:	90 e0       	ldi	r25, 0x00	; 0
     2b0:	96 83       	std	Z+6, r25	; 0x06
     2b2:	85 83       	std	Z+5, r24	; 0x05
     2b4:	c9 01       	movw	r24, r18
     2b6:	87 5a       	subi	r24, 0xA7	; 167
     2b8:	9e 4f       	sbci	r25, 0xFE	; 254
     2ba:	4a e0       	ldi	r20, 0x0A	; 10
     2bc:	50 e0       	ldi	r21, 0x00	; 0
     2be:	60 e0       	ldi	r22, 0x00	; 0
     2c0:	70 e0       	ldi	r23, 0x00	; 0
     2c2:	6c d6       	rcall	.+3288   	; 0xf9c <timer_set>
     2c4:	d3 de       	rcall	.-602    	; 0x6c <Serial_Put_Tx_Buffer>
     2c6:	81 e0       	ldi	r24, 0x01	; 1
     2c8:	08 95       	ret

000002ca <cygANT_ChannelRFFreq>:
     2ca:	92 e0       	ldi	r25, 0x02	; 2
     2cc:	90 93 35 01 	sts	0x0135, r25
     2d0:	95 e4       	ldi	r25, 0x45	; 69
     2d2:	90 93 36 01 	sts	0x0136, r25
     2d6:	80 93 37 01 	sts	0x0137, r24
     2da:	60 93 38 01 	sts	0x0138, r22
     2de:	48 2f       	mov	r20, r24
     2e0:	50 e0       	ldi	r21, 0x00	; 0
     2e2:	9a 01       	movw	r18, r20
     2e4:	64 e0       	ldi	r22, 0x04	; 4
     2e6:	22 0f       	add	r18, r18
     2e8:	33 1f       	adc	r19, r19
     2ea:	6a 95       	dec	r22
     2ec:	e1 f7       	brne	.-8      	; 0x2e6 <cygANT_ChannelRFFreq+0x1c>
     2ee:	24 1b       	sub	r18, r20
     2f0:	35 0b       	sbc	r19, r21
     2f2:	f9 01       	movw	r30, r18
     2f4:	ee 5a       	subi	r30, 0xAE	; 174
     2f6:	fe 4f       	sbci	r31, 0xFE	; 254
     2f8:	91 f0       	breq	.+36     	; 0x31e <cygANT_ChannelRFFreq+0x54>
     2fa:	91 83       	std	Z+1, r25	; 0x01
     2fc:	90 e4       	ldi	r25, 0x40	; 64
     2fe:	92 83       	std	Z+2, r25	; 0x02
     300:	80 83       	st	Z, r24
     302:	81 e0       	ldi	r24, 0x01	; 1
     304:	84 83       	std	Z+4, r24	; 0x04
     306:	8a e0       	ldi	r24, 0x0A	; 10
     308:	90 e0       	ldi	r25, 0x00	; 0
     30a:	96 83       	std	Z+6, r25	; 0x06
     30c:	85 83       	std	Z+5, r24	; 0x05
     30e:	c9 01       	movw	r24, r18
     310:	87 5a       	subi	r24, 0xA7	; 167
     312:	9e 4f       	sbci	r25, 0xFE	; 254
     314:	4a e0       	ldi	r20, 0x0A	; 10
     316:	50 e0       	ldi	r21, 0x00	; 0
     318:	60 e0       	ldi	r22, 0x00	; 0
     31a:	70 e0       	ldi	r23, 0x00	; 0
     31c:	3f d6       	rcall	.+3198   	; 0xf9c <timer_set>
     31e:	a6 de       	rcall	.-692    	; 0x6c <Serial_Put_Tx_Buffer>
     320:	81 e0       	ldi	r24, 0x01	; 1
     322:	08 95       	ret

00000324 <cygANT_SetNetworkKey>:
     324:	fb 01       	movw	r30, r22
     326:	99 e0       	ldi	r25, 0x09	; 9
     328:	90 93 35 01 	sts	0x0135, r25
     32c:	26 e4       	ldi	r18, 0x46	; 70
     32e:	20 93 36 01 	sts	0x0136, r18
     332:	80 93 37 01 	sts	0x0137, r24
     336:	80 81       	ld	r24, Z
     338:	80 93 38 01 	sts	0x0138, r24
     33c:	81 81       	ldd	r24, Z+1	; 0x01
     33e:	80 93 39 01 	sts	0x0139, r24
     342:	82 81       	ldd	r24, Z+2	; 0x02
     344:	80 93 3a 01 	sts	0x013A, r24
     348:	83 81       	ldd	r24, Z+3	; 0x03
     34a:	80 93 3b 01 	sts	0x013B, r24
     34e:	84 81       	ldd	r24, Z+4	; 0x04
     350:	80 93 3c 01 	sts	0x013C, r24
     354:	85 81       	ldd	r24, Z+5	; 0x05
     356:	80 93 3d 01 	sts	0x013D, r24
     35a:	86 81       	ldd	r24, Z+6	; 0x06
     35c:	80 93 3e 01 	sts	0x013E, r24
     360:	87 81       	ldd	r24, Z+7	; 0x07
     362:	80 93 3f 01 	sts	0x013F, r24
     366:	83 e5       	ldi	r24, 0x53	; 83
     368:	91 e0       	ldi	r25, 0x01	; 1
     36a:	20 93 53 01 	sts	0x0153, r18
     36e:	20 e4       	ldi	r18, 0x40	; 64
     370:	20 93 54 01 	sts	0x0154, r18
     374:	fc 01       	movw	r30, r24
     376:	12 92       	st	-Z, r1
     378:	21 e0       	ldi	r18, 0x01	; 1
     37a:	24 83       	std	Z+4, r18	; 0x04
     37c:	2a e0       	ldi	r18, 0x0A	; 10
     37e:	30 e0       	ldi	r19, 0x00	; 0
     380:	36 83       	std	Z+6, r19	; 0x06
     382:	25 83       	std	Z+5, r18	; 0x05
     384:	06 96       	adiw	r24, 0x06	; 6
     386:	4a e0       	ldi	r20, 0x0A	; 10
     388:	50 e0       	ldi	r21, 0x00	; 0
     38a:	60 e0       	ldi	r22, 0x00	; 0
     38c:	70 e0       	ldi	r23, 0x00	; 0
     38e:	06 d6       	rcall	.+3084   	; 0xf9c <timer_set>
     390:	6d de       	rcall	.-806    	; 0x6c <Serial_Put_Tx_Buffer>
     392:	81 e0       	ldi	r24, 0x01	; 1
     394:	08 95       	ret

00000396 <cygANT_SetTransmitPower>:
     396:	92 e0       	ldi	r25, 0x02	; 2
     398:	90 93 35 01 	sts	0x0135, r25
     39c:	97 e4       	ldi	r25, 0x47	; 71
     39e:	90 93 36 01 	sts	0x0136, r25
     3a2:	80 93 37 01 	sts	0x0137, r24
     3a6:	60 93 38 01 	sts	0x0138, r22
     3aa:	48 2f       	mov	r20, r24
     3ac:	50 e0       	ldi	r21, 0x00	; 0
     3ae:	9a 01       	movw	r18, r20
     3b0:	74 e0       	ldi	r23, 0x04	; 4
     3b2:	22 0f       	add	r18, r18
     3b4:	33 1f       	adc	r19, r19
     3b6:	7a 95       	dec	r23
     3b8:	e1 f7       	brne	.-8      	; 0x3b2 <cygANT_SetTransmitPower+0x1c>
     3ba:	24 1b       	sub	r18, r20
     3bc:	35 0b       	sbc	r19, r21
     3be:	f9 01       	movw	r30, r18
     3c0:	ee 5a       	subi	r30, 0xAE	; 174
     3c2:	fe 4f       	sbci	r31, 0xFE	; 254
     3c4:	91 f0       	breq	.+36     	; 0x3ea <cygANT_SetTransmitPower+0x54>
     3c6:	91 83       	std	Z+1, r25	; 0x01
     3c8:	90 e4       	ldi	r25, 0x40	; 64
     3ca:	92 83       	std	Z+2, r25	; 0x02
     3cc:	80 83       	st	Z, r24
     3ce:	81 e0       	ldi	r24, 0x01	; 1
     3d0:	84 83       	std	Z+4, r24	; 0x04
     3d2:	8a e0       	ldi	r24, 0x0A	; 10
     3d4:	90 e0       	ldi	r25, 0x00	; 0
     3d6:	96 83       	std	Z+6, r25	; 0x06
     3d8:	85 83       	std	Z+5, r24	; 0x05
     3da:	c9 01       	movw	r24, r18
     3dc:	87 5a       	subi	r24, 0xA7	; 167
     3de:	9e 4f       	sbci	r25, 0xFE	; 254
     3e0:	4a e0       	ldi	r20, 0x0A	; 10
     3e2:	50 e0       	ldi	r21, 0x00	; 0
     3e4:	60 e0       	ldi	r22, 0x00	; 0
     3e6:	70 e0       	ldi	r23, 0x00	; 0
     3e8:	d9 d5       	rcall	.+2994   	; 0xf9c <timer_set>
     3ea:	40 de       	rcall	.-896    	; 0x6c <Serial_Put_Tx_Buffer>
     3ec:	81 e0       	ldi	r24, 0x01	; 1
     3ee:	08 95       	ret

000003f0 <cygANT_AddChannelID>:
     3f0:	0f 93       	push	r16
     3f2:	96 e0       	ldi	r25, 0x06	; 6
     3f4:	90 93 35 01 	sts	0x0135, r25
     3f8:	99 e5       	ldi	r25, 0x59	; 89
     3fa:	90 93 36 01 	sts	0x0136, r25
     3fe:	60 93 37 01 	sts	0x0137, r22
     402:	70 93 38 01 	sts	0x0138, r23
     406:	40 93 39 01 	sts	0x0139, r20
     40a:	20 93 3a 01 	sts	0x013A, r18
     40e:	00 93 3b 01 	sts	0x013B, r16
     412:	48 2f       	mov	r20, r24
     414:	50 e0       	ldi	r21, 0x00	; 0
     416:	9a 01       	movw	r18, r20
     418:	e4 e0       	ldi	r30, 0x04	; 4
     41a:	22 0f       	add	r18, r18
     41c:	33 1f       	adc	r19, r19
     41e:	ea 95       	dec	r30
     420:	e1 f7       	brne	.-8      	; 0x41a <cygANT_AddChannelID+0x2a>
     422:	24 1b       	sub	r18, r20
     424:	35 0b       	sbc	r19, r21
     426:	f9 01       	movw	r30, r18
     428:	ee 5a       	subi	r30, 0xAE	; 174
     42a:	fe 4f       	sbci	r31, 0xFE	; 254
     42c:	91 f0       	breq	.+36     	; 0x452 <cygANT_AddChannelID+0x62>
     42e:	91 83       	std	Z+1, r25	; 0x01
     430:	90 e4       	ldi	r25, 0x40	; 64
     432:	92 83       	std	Z+2, r25	; 0x02
     434:	80 83       	st	Z, r24
     436:	81 e0       	ldi	r24, 0x01	; 1
     438:	84 83       	std	Z+4, r24	; 0x04
     43a:	8a e0       	ldi	r24, 0x0A	; 10
     43c:	90 e0       	ldi	r25, 0x00	; 0
     43e:	96 83       	std	Z+6, r25	; 0x06
     440:	85 83       	std	Z+5, r24	; 0x05
     442:	c9 01       	movw	r24, r18
     444:	87 5a       	subi	r24, 0xA7	; 167
     446:	9e 4f       	sbci	r25, 0xFE	; 254
     448:	4a e0       	ldi	r20, 0x0A	; 10
     44a:	50 e0       	ldi	r21, 0x00	; 0
     44c:	60 e0       	ldi	r22, 0x00	; 0
     44e:	70 e0       	ldi	r23, 0x00	; 0
     450:	a5 d5       	rcall	.+2890   	; 0xf9c <timer_set>
     452:	0c de       	rcall	.-1000   	; 0x6c <Serial_Put_Tx_Buffer>
     454:	81 e0       	ldi	r24, 0x01	; 1
     456:	0f 91       	pop	r16
     458:	08 95       	ret

0000045a <cygANT_ConfigList>:
     45a:	93 e0       	ldi	r25, 0x03	; 3
     45c:	90 93 35 01 	sts	0x0135, r25
     460:	9a e5       	ldi	r25, 0x5A	; 90
     462:	90 93 36 01 	sts	0x0136, r25
     466:	60 93 37 01 	sts	0x0137, r22
     46a:	40 93 38 01 	sts	0x0138, r20
     46e:	48 2f       	mov	r20, r24
     470:	50 e0       	ldi	r21, 0x00	; 0
     472:	9a 01       	movw	r18, r20
     474:	f4 e0       	ldi	r31, 0x04	; 4
     476:	22 0f       	add	r18, r18
     478:	33 1f       	adc	r19, r19
     47a:	fa 95       	dec	r31
     47c:	e1 f7       	brne	.-8      	; 0x476 <cygANT_ConfigList+0x1c>
     47e:	24 1b       	sub	r18, r20
     480:	35 0b       	sbc	r19, r21
     482:	f9 01       	movw	r30, r18
     484:	ee 5a       	subi	r30, 0xAE	; 174
     486:	fe 4f       	sbci	r31, 0xFE	; 254
     488:	91 f0       	breq	.+36     	; 0x4ae <cygANT_ConfigList+0x54>
     48a:	91 83       	std	Z+1, r25	; 0x01
     48c:	90 e4       	ldi	r25, 0x40	; 64
     48e:	92 83       	std	Z+2, r25	; 0x02
     490:	80 83       	st	Z, r24
     492:	81 e0       	ldi	r24, 0x01	; 1
     494:	84 83       	std	Z+4, r24	; 0x04
     496:	8a e0       	ldi	r24, 0x0A	; 10
     498:	90 e0       	ldi	r25, 0x00	; 0
     49a:	96 83       	std	Z+6, r25	; 0x06
     49c:	85 83       	std	Z+5, r24	; 0x05
     49e:	c9 01       	movw	r24, r18
     4a0:	87 5a       	subi	r24, 0xA7	; 167
     4a2:	9e 4f       	sbci	r25, 0xFE	; 254
     4a4:	4a e0       	ldi	r20, 0x0A	; 10
     4a6:	50 e0       	ldi	r21, 0x00	; 0
     4a8:	60 e0       	ldi	r22, 0x00	; 0
     4aa:	70 e0       	ldi	r23, 0x00	; 0
     4ac:	77 d5       	rcall	.+2798   	; 0xf9c <timer_set>
     4ae:	de dd       	rcall	.-1092   	; 0x6c <Serial_Put_Tx_Buffer>
     4b0:	81 e0       	ldi	r24, 0x01	; 1
     4b2:	08 95       	ret

000004b4 <cygANT_SetChannelTxPower>:
     4b4:	92 e0       	ldi	r25, 0x02	; 2
     4b6:	90 93 35 01 	sts	0x0135, r25
     4ba:	90 e6       	ldi	r25, 0x60	; 96
     4bc:	90 93 36 01 	sts	0x0136, r25
     4c0:	60 93 37 01 	sts	0x0137, r22
     4c4:	48 2f       	mov	r20, r24
     4c6:	50 e0       	ldi	r21, 0x00	; 0
     4c8:	9a 01       	movw	r18, r20
     4ca:	a4 e0       	ldi	r26, 0x04	; 4
     4cc:	22 0f       	add	r18, r18
     4ce:	33 1f       	adc	r19, r19
     4d0:	aa 95       	dec	r26
     4d2:	e1 f7       	brne	.-8      	; 0x4cc <cygANT_SetChannelTxPower+0x18>
     4d4:	24 1b       	sub	r18, r20
     4d6:	35 0b       	sbc	r19, r21
     4d8:	f9 01       	movw	r30, r18
     4da:	ee 5a       	subi	r30, 0xAE	; 174
     4dc:	fe 4f       	sbci	r31, 0xFE	; 254
     4de:	91 f0       	breq	.+36     	; 0x504 <__stack+0x5>
     4e0:	91 83       	std	Z+1, r25	; 0x01
     4e2:	90 e4       	ldi	r25, 0x40	; 64
     4e4:	92 83       	std	Z+2, r25	; 0x02
     4e6:	80 83       	st	Z, r24
     4e8:	81 e0       	ldi	r24, 0x01	; 1
     4ea:	84 83       	std	Z+4, r24	; 0x04
     4ec:	8a e0       	ldi	r24, 0x0A	; 10
     4ee:	90 e0       	ldi	r25, 0x00	; 0
     4f0:	96 83       	std	Z+6, r25	; 0x06
     4f2:	85 83       	std	Z+5, r24	; 0x05
     4f4:	c9 01       	movw	r24, r18
     4f6:	87 5a       	subi	r24, 0xA7	; 167
     4f8:	9e 4f       	sbci	r25, 0xFE	; 254
     4fa:	4a e0       	ldi	r20, 0x0A	; 10
     4fc:	50 e0       	ldi	r21, 0x00	; 0
     4fe:	60 e0       	ldi	r22, 0x00	; 0
     500:	70 e0       	ldi	r23, 0x00	; 0
     502:	4c d5       	rcall	.+2712   	; 0xf9c <timer_set>
     504:	b3 dd       	rcall	.-1178   	; 0x6c <Serial_Put_Tx_Buffer>
     506:	81 e0       	ldi	r24, 0x01	; 1
     508:	08 95       	ret

0000050a <cygANT_SetLowProrityChannelSearchTimeout>:
     50a:	92 e0       	ldi	r25, 0x02	; 2
     50c:	90 93 35 01 	sts	0x0135, r25
     510:	93 e6       	ldi	r25, 0x63	; 99
     512:	90 93 36 01 	sts	0x0136, r25
     516:	60 93 37 01 	sts	0x0137, r22
     51a:	48 2f       	mov	r20, r24
     51c:	50 e0       	ldi	r21, 0x00	; 0
     51e:	9a 01       	movw	r18, r20
     520:	b4 e0       	ldi	r27, 0x04	; 4
     522:	22 0f       	add	r18, r18
     524:	33 1f       	adc	r19, r19
     526:	ba 95       	dec	r27
     528:	e1 f7       	brne	.-8      	; 0x522 <cygANT_SetLowProrityChannelSearchTimeout+0x18>
     52a:	24 1b       	sub	r18, r20
     52c:	35 0b       	sbc	r19, r21
     52e:	f9 01       	movw	r30, r18
     530:	ee 5a       	subi	r30, 0xAE	; 174
     532:	fe 4f       	sbci	r31, 0xFE	; 254
     534:	91 f0       	breq	.+36     	; 0x55a <cygANT_SetLowProrityChannelSearchTimeout+0x50>
     536:	91 83       	std	Z+1, r25	; 0x01
     538:	90 e4       	ldi	r25, 0x40	; 64
     53a:	92 83       	std	Z+2, r25	; 0x02
     53c:	80 83       	st	Z, r24
     53e:	81 e0       	ldi	r24, 0x01	; 1
     540:	84 83       	std	Z+4, r24	; 0x04
     542:	8a e0       	ldi	r24, 0x0A	; 10
     544:	90 e0       	ldi	r25, 0x00	; 0
     546:	96 83       	std	Z+6, r25	; 0x06
     548:	85 83       	std	Z+5, r24	; 0x05
     54a:	c9 01       	movw	r24, r18
     54c:	87 5a       	subi	r24, 0xA7	; 167
     54e:	9e 4f       	sbci	r25, 0xFE	; 254
     550:	4a e0       	ldi	r20, 0x0A	; 10
     552:	50 e0       	ldi	r21, 0x00	; 0
     554:	60 e0       	ldi	r22, 0x00	; 0
     556:	70 e0       	ldi	r23, 0x00	; 0
     558:	21 d5       	rcall	.+2626   	; 0xf9c <timer_set>
     55a:	88 dd       	rcall	.-1264   	; 0x6c <Serial_Put_Tx_Buffer>
     55c:	81 e0       	ldi	r24, 0x01	; 1
     55e:	08 95       	ret

00000560 <cygANT_SetSerialNumChannelId>:
     560:	93 e0       	ldi	r25, 0x03	; 3
     562:	90 93 35 01 	sts	0x0135, r25
     566:	95 e6       	ldi	r25, 0x65	; 101
     568:	90 93 36 01 	sts	0x0136, r25
     56c:	60 93 37 01 	sts	0x0137, r22
     570:	40 93 38 01 	sts	0x0138, r20
     574:	48 2f       	mov	r20, r24
     576:	50 e0       	ldi	r21, 0x00	; 0
     578:	9a 01       	movw	r18, r20
     57a:	64 e0       	ldi	r22, 0x04	; 4
     57c:	22 0f       	add	r18, r18
     57e:	33 1f       	adc	r19, r19
     580:	6a 95       	dec	r22
     582:	e1 f7       	brne	.-8      	; 0x57c <cygANT_SetSerialNumChannelId+0x1c>
     584:	24 1b       	sub	r18, r20
     586:	35 0b       	sbc	r19, r21
     588:	f9 01       	movw	r30, r18
     58a:	ee 5a       	subi	r30, 0xAE	; 174
     58c:	fe 4f       	sbci	r31, 0xFE	; 254
     58e:	91 f0       	breq	.+36     	; 0x5b4 <cygANT_SetSerialNumChannelId+0x54>
     590:	91 83       	std	Z+1, r25	; 0x01
     592:	90 e4       	ldi	r25, 0x40	; 64
     594:	92 83       	std	Z+2, r25	; 0x02
     596:	80 83       	st	Z, r24
     598:	81 e0       	ldi	r24, 0x01	; 1
     59a:	84 83       	std	Z+4, r24	; 0x04
     59c:	8a e0       	ldi	r24, 0x0A	; 10
     59e:	90 e0       	ldi	r25, 0x00	; 0
     5a0:	96 83       	std	Z+6, r25	; 0x06
     5a2:	85 83       	std	Z+5, r24	; 0x05
     5a4:	c9 01       	movw	r24, r18
     5a6:	87 5a       	subi	r24, 0xA7	; 167
     5a8:	9e 4f       	sbci	r25, 0xFE	; 254
     5aa:	4a e0       	ldi	r20, 0x0A	; 10
     5ac:	50 e0       	ldi	r21, 0x00	; 0
     5ae:	60 e0       	ldi	r22, 0x00	; 0
     5b0:	70 e0       	ldi	r23, 0x00	; 0
     5b2:	f4 d4       	rcall	.+2536   	; 0xf9c <timer_set>
     5b4:	5b dd       	rcall	.-1354   	; 0x6c <Serial_Put_Tx_Buffer>
     5b6:	81 e0       	ldi	r24, 0x01	; 1
     5b8:	08 95       	ret

000005ba <cygANT_RxExtMesgsEnable>:
     5ba:	92 e0       	ldi	r25, 0x02	; 2
     5bc:	90 93 35 01 	sts	0x0135, r25
     5c0:	96 e6       	ldi	r25, 0x66	; 102
     5c2:	90 93 36 01 	sts	0x0136, r25
     5c6:	80 93 37 01 	sts	0x0137, r24
     5ca:	90 93 62 01 	sts	0x0162, r25
     5ce:	80 e4       	ldi	r24, 0x40	; 64
     5d0:	80 93 63 01 	sts	0x0163, r24
     5d4:	81 e0       	ldi	r24, 0x01	; 1
     5d6:	80 93 61 01 	sts	0x0161, r24
     5da:	80 93 65 01 	sts	0x0165, r24
     5de:	8a e0       	ldi	r24, 0x0A	; 10
     5e0:	90 e0       	ldi	r25, 0x00	; 0
     5e2:	90 93 67 01 	sts	0x0167, r25
     5e6:	80 93 66 01 	sts	0x0166, r24
     5ea:	88 e6       	ldi	r24, 0x68	; 104
     5ec:	91 e0       	ldi	r25, 0x01	; 1
     5ee:	4a e0       	ldi	r20, 0x0A	; 10
     5f0:	50 e0       	ldi	r21, 0x00	; 0
     5f2:	60 e0       	ldi	r22, 0x00	; 0
     5f4:	70 e0       	ldi	r23, 0x00	; 0
     5f6:	d2 d4       	rcall	.+2468   	; 0xf9c <timer_set>
     5f8:	39 dd       	rcall	.-1422   	; 0x6c <Serial_Put_Tx_Buffer>
     5fa:	81 e0       	ldi	r24, 0x01	; 1
     5fc:	08 95       	ret

000005fe <cygANT_EnableLED>:
     5fe:	92 e0       	ldi	r25, 0x02	; 2
     600:	90 93 35 01 	sts	0x0135, r25
     604:	98 e6       	ldi	r25, 0x68	; 104
     606:	90 93 36 01 	sts	0x0136, r25
     60a:	80 93 37 01 	sts	0x0137, r24
     60e:	90 93 62 01 	sts	0x0162, r25
     612:	80 e4       	ldi	r24, 0x40	; 64
     614:	80 93 63 01 	sts	0x0163, r24
     618:	81 e0       	ldi	r24, 0x01	; 1
     61a:	80 93 61 01 	sts	0x0161, r24
     61e:	80 93 65 01 	sts	0x0165, r24
     622:	8a e0       	ldi	r24, 0x0A	; 10
     624:	90 e0       	ldi	r25, 0x00	; 0
     626:	90 93 67 01 	sts	0x0167, r25
     62a:	80 93 66 01 	sts	0x0166, r24
     62e:	88 e6       	ldi	r24, 0x68	; 104
     630:	91 e0       	ldi	r25, 0x01	; 1
     632:	4a e0       	ldi	r20, 0x0A	; 10
     634:	50 e0       	ldi	r21, 0x00	; 0
     636:	60 e0       	ldi	r22, 0x00	; 0
     638:	70 e0       	ldi	r23, 0x00	; 0
     63a:	b0 d4       	rcall	.+2400   	; 0xf9c <timer_set>
     63c:	17 dd       	rcall	.-1490   	; 0x6c <Serial_Put_Tx_Buffer>
     63e:	81 e0       	ldi	r24, 0x01	; 1
     640:	08 95       	ret

00000642 <cygANT_CrystalEnable>:
     642:	81 e0       	ldi	r24, 0x01	; 1
     644:	80 93 35 01 	sts	0x0135, r24
     648:	9d e6       	ldi	r25, 0x6D	; 109
     64a:	90 93 36 01 	sts	0x0136, r25
     64e:	10 92 37 01 	sts	0x0137, r1
     652:	90 93 62 01 	sts	0x0162, r25
     656:	90 e4       	ldi	r25, 0x40	; 64
     658:	90 93 63 01 	sts	0x0163, r25
     65c:	80 93 61 01 	sts	0x0161, r24
     660:	80 93 65 01 	sts	0x0165, r24
     664:	8a e0       	ldi	r24, 0x0A	; 10
     666:	90 e0       	ldi	r25, 0x00	; 0
     668:	90 93 67 01 	sts	0x0167, r25
     66c:	80 93 66 01 	sts	0x0166, r24
     670:	88 e6       	ldi	r24, 0x68	; 104
     672:	91 e0       	ldi	r25, 0x01	; 1
     674:	4a e0       	ldi	r20, 0x0A	; 10
     676:	50 e0       	ldi	r21, 0x00	; 0
     678:	60 e0       	ldi	r22, 0x00	; 0
     67a:	70 e0       	ldi	r23, 0x00	; 0
     67c:	8f d4       	rcall	.+2334   	; 0xf9c <timer_set>
     67e:	f6 dc       	rcall	.-1556   	; 0x6c <Serial_Put_Tx_Buffer>
     680:	81 e0       	ldi	r24, 0x01	; 1
     682:	08 95       	ret

00000684 <cygANT_LibConfig>:
     684:	92 e0       	ldi	r25, 0x02	; 2
     686:	90 93 35 01 	sts	0x0135, r25
     68a:	9e e6       	ldi	r25, 0x6E	; 110
     68c:	90 93 36 01 	sts	0x0136, r25
     690:	80 93 37 01 	sts	0x0137, r24
     694:	90 93 62 01 	sts	0x0162, r25
     698:	80 e4       	ldi	r24, 0x40	; 64
     69a:	80 93 63 01 	sts	0x0163, r24
     69e:	81 e0       	ldi	r24, 0x01	; 1
     6a0:	80 93 61 01 	sts	0x0161, r24
     6a4:	80 93 65 01 	sts	0x0165, r24
     6a8:	8a e0       	ldi	r24, 0x0A	; 10
     6aa:	90 e0       	ldi	r25, 0x00	; 0
     6ac:	90 93 67 01 	sts	0x0167, r25
     6b0:	80 93 66 01 	sts	0x0166, r24
     6b4:	88 e6       	ldi	r24, 0x68	; 104
     6b6:	91 e0       	ldi	r25, 0x01	; 1
     6b8:	4a e0       	ldi	r20, 0x0A	; 10
     6ba:	50 e0       	ldi	r21, 0x00	; 0
     6bc:	60 e0       	ldi	r22, 0x00	; 0
     6be:	70 e0       	ldi	r23, 0x00	; 0
     6c0:	6d d4       	rcall	.+2266   	; 0xf9c <timer_set>
     6c2:	d4 dc       	rcall	.-1624   	; 0x6c <Serial_Put_Tx_Buffer>
     6c4:	81 e0       	ldi	r24, 0x01	; 1
     6c6:	08 95       	ret

000006c8 <cygANT_ConfigFrequencyAgility>:
     6c8:	94 e0       	ldi	r25, 0x04	; 4
     6ca:	90 93 35 01 	sts	0x0135, r25
     6ce:	90 e7       	ldi	r25, 0x70	; 112
     6d0:	90 93 36 01 	sts	0x0136, r25
     6d4:	60 93 37 01 	sts	0x0137, r22
     6d8:	40 93 38 01 	sts	0x0138, r20
     6dc:	20 93 39 01 	sts	0x0139, r18
     6e0:	48 2f       	mov	r20, r24
     6e2:	50 e0       	ldi	r21, 0x00	; 0
     6e4:	9a 01       	movw	r18, r20
     6e6:	74 e0       	ldi	r23, 0x04	; 4
     6e8:	22 0f       	add	r18, r18
     6ea:	33 1f       	adc	r19, r19
     6ec:	7a 95       	dec	r23
     6ee:	e1 f7       	brne	.-8      	; 0x6e8 <cygANT_ConfigFrequencyAgility+0x20>
     6f0:	24 1b       	sub	r18, r20
     6f2:	35 0b       	sbc	r19, r21
     6f4:	f9 01       	movw	r30, r18
     6f6:	ee 5a       	subi	r30, 0xAE	; 174
     6f8:	fe 4f       	sbci	r31, 0xFE	; 254
     6fa:	91 f0       	breq	.+36     	; 0x720 <cygANT_ConfigFrequencyAgility+0x58>
     6fc:	91 83       	std	Z+1, r25	; 0x01
     6fe:	90 e4       	ldi	r25, 0x40	; 64
     700:	92 83       	std	Z+2, r25	; 0x02
     702:	80 83       	st	Z, r24
     704:	81 e0       	ldi	r24, 0x01	; 1
     706:	84 83       	std	Z+4, r24	; 0x04
     708:	8a e0       	ldi	r24, 0x0A	; 10
     70a:	90 e0       	ldi	r25, 0x00	; 0
     70c:	96 83       	std	Z+6, r25	; 0x06
     70e:	85 83       	std	Z+5, r24	; 0x05
     710:	c9 01       	movw	r24, r18
     712:	87 5a       	subi	r24, 0xA7	; 167
     714:	9e 4f       	sbci	r25, 0xFE	; 254
     716:	4a e0       	ldi	r20, 0x0A	; 10
     718:	50 e0       	ldi	r21, 0x00	; 0
     71a:	60 e0       	ldi	r22, 0x00	; 0
     71c:	70 e0       	ldi	r23, 0x00	; 0
     71e:	3e d4       	rcall	.+2172   	; 0xf9c <timer_set>
     720:	a5 dc       	rcall	.-1718   	; 0x6c <Serial_Put_Tx_Buffer>
     722:	81 e0       	ldi	r24, 0x01	; 1
     724:	08 95       	ret

00000726 <cygANT_SetProximitySearch>:
     726:	92 e0       	ldi	r25, 0x02	; 2
     728:	90 93 35 01 	sts	0x0135, r25
     72c:	91 e7       	ldi	r25, 0x71	; 113
     72e:	90 93 36 01 	sts	0x0136, r25
     732:	60 93 37 01 	sts	0x0137, r22
     736:	48 2f       	mov	r20, r24
     738:	50 e0       	ldi	r21, 0x00	; 0
     73a:	9a 01       	movw	r18, r20
     73c:	e4 e0       	ldi	r30, 0x04	; 4
     73e:	22 0f       	add	r18, r18
     740:	33 1f       	adc	r19, r19
     742:	ea 95       	dec	r30
     744:	e1 f7       	brne	.-8      	; 0x73e <cygANT_SetProximitySearch+0x18>
     746:	24 1b       	sub	r18, r20
     748:	35 0b       	sbc	r19, r21
     74a:	f9 01       	movw	r30, r18
     74c:	ee 5a       	subi	r30, 0xAE	; 174
     74e:	fe 4f       	sbci	r31, 0xFE	; 254
     750:	91 f0       	breq	.+36     	; 0x776 <cygANT_SetProximitySearch+0x50>
     752:	91 83       	std	Z+1, r25	; 0x01
     754:	90 e4       	ldi	r25, 0x40	; 64
     756:	92 83       	std	Z+2, r25	; 0x02
     758:	80 83       	st	Z, r24
     75a:	81 e0       	ldi	r24, 0x01	; 1
     75c:	84 83       	std	Z+4, r24	; 0x04
     75e:	8a e0       	ldi	r24, 0x0A	; 10
     760:	90 e0       	ldi	r25, 0x00	; 0
     762:	96 83       	std	Z+6, r25	; 0x06
     764:	85 83       	std	Z+5, r24	; 0x05
     766:	c9 01       	movw	r24, r18
     768:	87 5a       	subi	r24, 0xA7	; 167
     76a:	9e 4f       	sbci	r25, 0xFE	; 254
     76c:	4a e0       	ldi	r20, 0x0A	; 10
     76e:	50 e0       	ldi	r21, 0x00	; 0
     770:	60 e0       	ldi	r22, 0x00	; 0
     772:	70 e0       	ldi	r23, 0x00	; 0
     774:	13 d4       	rcall	.+2086   	; 0xf9c <timer_set>
     776:	7a dc       	rcall	.-1804   	; 0x6c <Serial_Put_Tx_Buffer>
     778:	81 e0       	ldi	r24, 0x01	; 1
     77a:	08 95       	ret

0000077c <cygANT_SetChannelSearchPriority>:
     77c:	92 e0       	ldi	r25, 0x02	; 2
     77e:	90 93 35 01 	sts	0x0135, r25
     782:	95 e7       	ldi	r25, 0x75	; 117
     784:	90 93 36 01 	sts	0x0136, r25
     788:	60 93 37 01 	sts	0x0137, r22
     78c:	48 2f       	mov	r20, r24
     78e:	50 e0       	ldi	r21, 0x00	; 0
     790:	9a 01       	movw	r18, r20
     792:	f4 e0       	ldi	r31, 0x04	; 4
     794:	22 0f       	add	r18, r18
     796:	33 1f       	adc	r19, r19
     798:	fa 95       	dec	r31
     79a:	e1 f7       	brne	.-8      	; 0x794 <cygANT_SetChannelSearchPriority+0x18>
     79c:	24 1b       	sub	r18, r20
     79e:	35 0b       	sbc	r19, r21
     7a0:	f9 01       	movw	r30, r18
     7a2:	ee 5a       	subi	r30, 0xAE	; 174
     7a4:	fe 4f       	sbci	r31, 0xFE	; 254
     7a6:	91 f0       	breq	.+36     	; 0x7cc <cygANT_SetChannelSearchPriority+0x50>
     7a8:	91 83       	std	Z+1, r25	; 0x01
     7aa:	90 e4       	ldi	r25, 0x40	; 64
     7ac:	92 83       	std	Z+2, r25	; 0x02
     7ae:	80 83       	st	Z, r24
     7b0:	81 e0       	ldi	r24, 0x01	; 1
     7b2:	84 83       	std	Z+4, r24	; 0x04
     7b4:	8a e0       	ldi	r24, 0x0A	; 10
     7b6:	90 e0       	ldi	r25, 0x00	; 0
     7b8:	96 83       	std	Z+6, r25	; 0x06
     7ba:	85 83       	std	Z+5, r24	; 0x05
     7bc:	c9 01       	movw	r24, r18
     7be:	87 5a       	subi	r24, 0xA7	; 167
     7c0:	9e 4f       	sbci	r25, 0xFE	; 254
     7c2:	4a e0       	ldi	r20, 0x0A	; 10
     7c4:	50 e0       	ldi	r21, 0x00	; 0
     7c6:	60 e0       	ldi	r22, 0x00	; 0
     7c8:	70 e0       	ldi	r23, 0x00	; 0
     7ca:	e8 d3       	rcall	.+2000   	; 0xf9c <timer_set>
     7cc:	4f dc       	rcall	.-1890   	; 0x6c <Serial_Put_Tx_Buffer>
     7ce:	81 e0       	ldi	r24, 0x01	; 1
     7d0:	08 95       	ret

000007d2 <cygANT_ResetSystem>:
     7d2:	81 e0       	ldi	r24, 0x01	; 1
     7d4:	80 93 35 01 	sts	0x0135, r24
     7d8:	8a e4       	ldi	r24, 0x4A	; 74
     7da:	80 93 36 01 	sts	0x0136, r24
     7de:	10 92 37 01 	sts	0x0137, r1
     7e2:	44 dc       	rcall	.-1912   	; 0x6c <Serial_Put_Tx_Buffer>
     7e4:	81 e0       	ldi	r24, 0x01	; 1
     7e6:	08 95       	ret

000007e8 <cygANT_OpenChannel>:
     7e8:	91 e0       	ldi	r25, 0x01	; 1
     7ea:	90 93 35 01 	sts	0x0135, r25
     7ee:	6b e4       	ldi	r22, 0x4B	; 75
     7f0:	60 93 36 01 	sts	0x0136, r22
     7f4:	80 93 37 01 	sts	0x0137, r24
     7f8:	48 2f       	mov	r20, r24
     7fa:	50 e0       	ldi	r21, 0x00	; 0
     7fc:	9a 01       	movw	r18, r20
     7fe:	a4 e0       	ldi	r26, 0x04	; 4
     800:	22 0f       	add	r18, r18
     802:	33 1f       	adc	r19, r19
     804:	aa 95       	dec	r26
     806:	e1 f7       	brne	.-8      	; 0x800 <cygANT_OpenChannel+0x18>
     808:	24 1b       	sub	r18, r20
     80a:	35 0b       	sbc	r19, r21
     80c:	f9 01       	movw	r30, r18
     80e:	ee 5a       	subi	r30, 0xAE	; 174
     810:	fe 4f       	sbci	r31, 0xFE	; 254
     812:	89 f0       	breq	.+34     	; 0x836 <cygANT_OpenChannel+0x4e>
     814:	61 83       	std	Z+1, r22	; 0x01
     816:	40 e4       	ldi	r20, 0x40	; 64
     818:	42 83       	std	Z+2, r20	; 0x02
     81a:	80 83       	st	Z, r24
     81c:	94 83       	std	Z+4, r25	; 0x04
     81e:	8a e0       	ldi	r24, 0x0A	; 10
     820:	90 e0       	ldi	r25, 0x00	; 0
     822:	96 83       	std	Z+6, r25	; 0x06
     824:	85 83       	std	Z+5, r24	; 0x05
     826:	c9 01       	movw	r24, r18
     828:	87 5a       	subi	r24, 0xA7	; 167
     82a:	9e 4f       	sbci	r25, 0xFE	; 254
     82c:	4a e0       	ldi	r20, 0x0A	; 10
     82e:	50 e0       	ldi	r21, 0x00	; 0
     830:	60 e0       	ldi	r22, 0x00	; 0
     832:	70 e0       	ldi	r23, 0x00	; 0
     834:	b3 d3       	rcall	.+1894   	; 0xf9c <timer_set>
     836:	1a dc       	rcall	.-1996   	; 0x6c <Serial_Put_Tx_Buffer>
     838:	81 e0       	ldi	r24, 0x01	; 1
     83a:	08 95       	ret

0000083c <cygANT_CloseChannel>:
     83c:	91 e0       	ldi	r25, 0x01	; 1
     83e:	90 93 35 01 	sts	0x0135, r25
     842:	6c e4       	ldi	r22, 0x4C	; 76
     844:	60 93 36 01 	sts	0x0136, r22
     848:	80 93 37 01 	sts	0x0137, r24
     84c:	48 2f       	mov	r20, r24
     84e:	50 e0       	ldi	r21, 0x00	; 0
     850:	9a 01       	movw	r18, r20
     852:	b4 e0       	ldi	r27, 0x04	; 4
     854:	22 0f       	add	r18, r18
     856:	33 1f       	adc	r19, r19
     858:	ba 95       	dec	r27
     85a:	e1 f7       	brne	.-8      	; 0x854 <cygANT_CloseChannel+0x18>
     85c:	24 1b       	sub	r18, r20
     85e:	35 0b       	sbc	r19, r21
     860:	f9 01       	movw	r30, r18
     862:	ee 5a       	subi	r30, 0xAE	; 174
     864:	fe 4f       	sbci	r31, 0xFE	; 254
     866:	89 f0       	breq	.+34     	; 0x88a <cygANT_CloseChannel+0x4e>
     868:	61 83       	std	Z+1, r22	; 0x01
     86a:	40 e4       	ldi	r20, 0x40	; 64
     86c:	42 83       	std	Z+2, r20	; 0x02
     86e:	80 83       	st	Z, r24
     870:	94 83       	std	Z+4, r25	; 0x04
     872:	8a e0       	ldi	r24, 0x0A	; 10
     874:	90 e0       	ldi	r25, 0x00	; 0
     876:	96 83       	std	Z+6, r25	; 0x06
     878:	85 83       	std	Z+5, r24	; 0x05
     87a:	c9 01       	movw	r24, r18
     87c:	87 5a       	subi	r24, 0xA7	; 167
     87e:	9e 4f       	sbci	r25, 0xFE	; 254
     880:	4a e0       	ldi	r20, 0x0A	; 10
     882:	50 e0       	ldi	r21, 0x00	; 0
     884:	60 e0       	ldi	r22, 0x00	; 0
     886:	70 e0       	ldi	r23, 0x00	; 0
     888:	89 d3       	rcall	.+1810   	; 0xf9c <timer_set>
     88a:	f0 db       	rcall	.-2080   	; 0x6c <Serial_Put_Tx_Buffer>
     88c:	81 e0       	ldi	r24, 0x01	; 1
     88e:	08 95       	ret

00000890 <cygANT_OpenRxScanMode>:
     890:	81 e0       	ldi	r24, 0x01	; 1
     892:	80 93 35 01 	sts	0x0135, r24
     896:	9b e5       	ldi	r25, 0x5B	; 91
     898:	90 93 36 01 	sts	0x0136, r25
     89c:	10 92 37 01 	sts	0x0137, r1
     8a0:	90 93 62 01 	sts	0x0162, r25
     8a4:	90 e4       	ldi	r25, 0x40	; 64
     8a6:	90 93 63 01 	sts	0x0163, r25
     8aa:	80 93 61 01 	sts	0x0161, r24
     8ae:	80 93 65 01 	sts	0x0165, r24
     8b2:	8a e0       	ldi	r24, 0x0A	; 10
     8b4:	90 e0       	ldi	r25, 0x00	; 0
     8b6:	90 93 67 01 	sts	0x0167, r25
     8ba:	80 93 66 01 	sts	0x0166, r24
     8be:	88 e6       	ldi	r24, 0x68	; 104
     8c0:	91 e0       	ldi	r25, 0x01	; 1
     8c2:	4a e0       	ldi	r20, 0x0A	; 10
     8c4:	50 e0       	ldi	r21, 0x00	; 0
     8c6:	60 e0       	ldi	r22, 0x00	; 0
     8c8:	70 e0       	ldi	r23, 0x00	; 0
     8ca:	68 d3       	rcall	.+1744   	; 0xf9c <timer_set>
     8cc:	cf db       	rcall	.-2146   	; 0x6c <Serial_Put_Tx_Buffer>
     8ce:	81 e0       	ldi	r24, 0x01	; 1
     8d0:	08 95       	ret

000008d2 <cygANT_RequestMessage>:
     8d2:	92 e0       	ldi	r25, 0x02	; 2
     8d4:	90 93 35 01 	sts	0x0135, r25
     8d8:	9d e4       	ldi	r25, 0x4D	; 77
     8da:	90 93 36 01 	sts	0x0136, r25
     8de:	60 93 37 01 	sts	0x0137, r22
     8e2:	48 2f       	mov	r20, r24
     8e4:	50 e0       	ldi	r21, 0x00	; 0
     8e6:	9a 01       	movw	r18, r20
     8e8:	64 e0       	ldi	r22, 0x04	; 4
     8ea:	22 0f       	add	r18, r18
     8ec:	33 1f       	adc	r19, r19
     8ee:	6a 95       	dec	r22
     8f0:	e1 f7       	brne	.-8      	; 0x8ea <cygANT_RequestMessage+0x18>
     8f2:	24 1b       	sub	r18, r20
     8f4:	35 0b       	sbc	r19, r21
     8f6:	f9 01       	movw	r30, r18
     8f8:	ee 5a       	subi	r30, 0xAE	; 174
     8fa:	fe 4f       	sbci	r31, 0xFE	; 254
     8fc:	91 f0       	breq	.+36     	; 0x922 <cygANT_RequestMessage+0x50>
     8fe:	91 83       	std	Z+1, r25	; 0x01
     900:	90 e4       	ldi	r25, 0x40	; 64
     902:	92 83       	std	Z+2, r25	; 0x02
     904:	80 83       	st	Z, r24
     906:	81 e0       	ldi	r24, 0x01	; 1
     908:	84 83       	std	Z+4, r24	; 0x04
     90a:	8a e0       	ldi	r24, 0x0A	; 10
     90c:	90 e0       	ldi	r25, 0x00	; 0
     90e:	96 83       	std	Z+6, r25	; 0x06
     910:	85 83       	std	Z+5, r24	; 0x05
     912:	c9 01       	movw	r24, r18
     914:	87 5a       	subi	r24, 0xA7	; 167
     916:	9e 4f       	sbci	r25, 0xFE	; 254
     918:	4a e0       	ldi	r20, 0x0A	; 10
     91a:	50 e0       	ldi	r21, 0x00	; 0
     91c:	60 e0       	ldi	r22, 0x00	; 0
     91e:	70 e0       	ldi	r23, 0x00	; 0
     920:	3d d3       	rcall	.+1658   	; 0xf9c <timer_set>
     922:	a4 db       	rcall	.-2232   	; 0x6c <Serial_Put_Tx_Buffer>
     924:	81 e0       	ldi	r24, 0x01	; 1
     926:	08 95       	ret

00000928 <cygANT_SleepMessage>:
     928:	81 e0       	ldi	r24, 0x01	; 1
     92a:	80 93 35 01 	sts	0x0135, r24
     92e:	95 ec       	ldi	r25, 0xC5	; 197
     930:	90 93 36 01 	sts	0x0136, r25
     934:	10 92 37 01 	sts	0x0137, r1
     938:	9c e4       	ldi	r25, 0x4C	; 76
     93a:	90 93 62 01 	sts	0x0162, r25
     93e:	90 e4       	ldi	r25, 0x40	; 64
     940:	90 93 63 01 	sts	0x0163, r25
     944:	80 93 61 01 	sts	0x0161, r24
     948:	80 93 65 01 	sts	0x0165, r24
     94c:	8a e0       	ldi	r24, 0x0A	; 10
     94e:	90 e0       	ldi	r25, 0x00	; 0
     950:	90 93 67 01 	sts	0x0167, r25
     954:	80 93 66 01 	sts	0x0166, r24
     958:	88 e6       	ldi	r24, 0x68	; 104
     95a:	91 e0       	ldi	r25, 0x01	; 1
     95c:	4a e0       	ldi	r20, 0x0A	; 10
     95e:	50 e0       	ldi	r21, 0x00	; 0
     960:	60 e0       	ldi	r22, 0x00	; 0
     962:	70 e0       	ldi	r23, 0x00	; 0
     964:	1b d3       	rcall	.+1590   	; 0xf9c <timer_set>
     966:	82 db       	rcall	.-2300   	; 0x6c <Serial_Put_Tx_Buffer>
     968:	81 e0       	ldi	r24, 0x01	; 1
     96a:	08 95       	ret

0000096c <cygANT_SendBroadcastData>:
     96c:	99 e0       	ldi	r25, 0x09	; 9
     96e:	90 93 35 01 	sts	0x0135, r25
     972:	9e e4       	ldi	r25, 0x4E	; 78
     974:	90 93 36 01 	sts	0x0136, r25
     978:	80 93 37 01 	sts	0x0137, r24
     97c:	a8 e3       	ldi	r26, 0x38	; 56
     97e:	b1 e0       	ldi	r27, 0x01	; 1
     980:	86 2f       	mov	r24, r22
     982:	97 2f       	mov	r25, r23
     984:	fc 01       	movw	r30, r24
     986:	88 e0       	ldi	r24, 0x08	; 8
     988:	01 90       	ld	r0, Z+
     98a:	0d 92       	st	X+, r0
     98c:	81 50       	subi	r24, 0x01	; 1
     98e:	e1 f7       	brne	.-8      	; 0x988 <cygANT_SendBroadcastData+0x1c>
     990:	6d db       	rcall	.-2342   	; 0x6c <Serial_Put_Tx_Buffer>
     992:	81 e0       	ldi	r24, 0x01	; 1
     994:	08 95       	ret

00000996 <cygANT_SendAcknowledgedData>:
     996:	99 e0       	ldi	r25, 0x09	; 9
     998:	90 93 35 01 	sts	0x0135, r25
     99c:	9f e4       	ldi	r25, 0x4F	; 79
     99e:	90 93 36 01 	sts	0x0136, r25
     9a2:	80 93 37 01 	sts	0x0137, r24
     9a6:	a8 e3       	ldi	r26, 0x38	; 56
     9a8:	b1 e0       	ldi	r27, 0x01	; 1
     9aa:	26 2f       	mov	r18, r22
     9ac:	37 2f       	mov	r19, r23
     9ae:	f9 01       	movw	r30, r18
     9b0:	98 e0       	ldi	r25, 0x08	; 8
     9b2:	01 90       	ld	r0, Z+
     9b4:	0d 92       	st	X+, r0
     9b6:	91 50       	subi	r25, 0x01	; 1
     9b8:	e1 f7       	brne	.-8      	; 0x9b2 <cygANT_SendAcknowledgedData+0x1c>
     9ba:	41 15       	cp	r20, r1
     9bc:	51 05       	cpc	r21, r1
     9be:	19 f1       	breq	.+70     	; 0xa06 <cygANT_SendAcknowledgedData+0x70>
     9c0:	68 2f       	mov	r22, r24
     9c2:	70 e0       	ldi	r23, 0x00	; 0
     9c4:	9b 01       	movw	r18, r22
     9c6:	e4 e0       	ldi	r30, 0x04	; 4
     9c8:	22 0f       	add	r18, r18
     9ca:	33 1f       	adc	r19, r19
     9cc:	ea 95       	dec	r30
     9ce:	e1 f7       	brne	.-8      	; 0x9c8 <cygANT_SendAcknowledgedData+0x32>
     9d0:	26 1b       	sub	r18, r22
     9d2:	37 0b       	sbc	r19, r23
     9d4:	f9 01       	movw	r30, r18
     9d6:	ee 5a       	subi	r30, 0xAE	; 174
     9d8:	fe 4f       	sbci	r31, 0xFE	; 254
     9da:	56 83       	std	Z+6, r21	; 0x06
     9dc:	45 83       	std	Z+5, r20	; 0x05
     9de:	30 97       	sbiw	r30, 0x00	; 0
     9e0:	91 f0       	breq	.+36     	; 0xa06 <cygANT_SendAcknowledgedData+0x70>
     9e2:	91 e0       	ldi	r25, 0x01	; 1
     9e4:	91 83       	std	Z+1, r25	; 0x01
     9e6:	40 e4       	ldi	r20, 0x40	; 64
     9e8:	42 83       	std	Z+2, r20	; 0x02
     9ea:	80 83       	st	Z, r24
     9ec:	94 83       	std	Z+4, r25	; 0x04
     9ee:	8a e0       	ldi	r24, 0x0A	; 10
     9f0:	90 e0       	ldi	r25, 0x00	; 0
     9f2:	96 83       	std	Z+6, r25	; 0x06
     9f4:	85 83       	std	Z+5, r24	; 0x05
     9f6:	c9 01       	movw	r24, r18
     9f8:	87 5a       	subi	r24, 0xA7	; 167
     9fa:	9e 4f       	sbci	r25, 0xFE	; 254
     9fc:	4a e0       	ldi	r20, 0x0A	; 10
     9fe:	50 e0       	ldi	r21, 0x00	; 0
     a00:	60 e0       	ldi	r22, 0x00	; 0
     a02:	70 e0       	ldi	r23, 0x00	; 0
     a04:	cb d2       	rcall	.+1430   	; 0xf9c <timer_set>
     a06:	32 db       	rcall	.-2460   	; 0x6c <Serial_Put_Tx_Buffer>
     a08:	81 e0       	ldi	r24, 0x01	; 1
     a0a:	08 95       	ret

00000a0c <cygANT_SendBurstTransferPackage>:
     a0c:	af 92       	push	r10
     a0e:	bf 92       	push	r11
     a10:	df 92       	push	r13
     a12:	ef 92       	push	r14
     a14:	ff 92       	push	r15
     a16:	0f 93       	push	r16
     a18:	1f 93       	push	r17
     a1a:	df 93       	push	r29
     a1c:	cf 93       	push	r28
     a1e:	0f 92       	push	r0
     a20:	cd b7       	in	r28, 0x3d	; 61
     a22:	de b7       	in	r29, 0x3e	; 62
     a24:	f8 2e       	mov	r15, r24
     a26:	5b 01       	movw	r10, r22
     a28:	8a 01       	movw	r16, r20
     a2a:	80 e0       	ldi	r24, 0x00	; 0
     a2c:	a9 e0       	ldi	r26, 0x09	; 9
     a2e:	da 2e       	mov	r13, r26
     a30:	f0 e5       	ldi	r31, 0x50	; 80
     a32:	ef 2e       	mov	r14, r31
     a34:	01 30       	cpi	r16, 0x01	; 1
     a36:	11 05       	cpc	r17, r1
     a38:	09 f4       	brne	.+2      	; 0xa3c <cygANT_SendBurstTransferPackage+0x30>
     a3a:	80 68       	ori	r24, 0x80	; 128
     a3c:	d0 92 35 01 	sts	0x0135, r13
     a40:	e0 92 36 01 	sts	0x0136, r14
     a44:	98 2f       	mov	r25, r24
     a46:	9f 29       	or	r25, r15
     a48:	90 93 37 01 	sts	0x0137, r25
     a4c:	f5 01       	movw	r30, r10
     a4e:	90 81       	ld	r25, Z
     a50:	90 93 38 01 	sts	0x0138, r25
     a54:	91 81       	ldd	r25, Z+1	; 0x01
     a56:	90 93 39 01 	sts	0x0139, r25
     a5a:	92 81       	ldd	r25, Z+2	; 0x02
     a5c:	90 93 3a 01 	sts	0x013A, r25
     a60:	93 81       	ldd	r25, Z+3	; 0x03
     a62:	90 93 3b 01 	sts	0x013B, r25
     a66:	94 81       	ldd	r25, Z+4	; 0x04
     a68:	90 93 3c 01 	sts	0x013C, r25
     a6c:	95 81       	ldd	r25, Z+5	; 0x05
     a6e:	90 93 3d 01 	sts	0x013D, r25
     a72:	96 81       	ldd	r25, Z+6	; 0x06
     a74:	90 93 3e 01 	sts	0x013E, r25
     a78:	97 81       	ldd	r25, Z+7	; 0x07
     a7a:	90 93 3f 01 	sts	0x013F, r25
     a7e:	89 83       	std	Y+1, r24	; 0x01
     a80:	f5 da       	rcall	.-2582   	; 0x6c <Serial_Put_Tx_Buffer>
     a82:	28 e0       	ldi	r18, 0x08	; 8
     a84:	30 e0       	ldi	r19, 0x00	; 0
     a86:	a2 0e       	add	r10, r18
     a88:	b3 1e       	adc	r11, r19
     a8a:	89 81       	ldd	r24, Y+1	; 0x01
     a8c:	80 36       	cpi	r24, 0x60	; 96
     a8e:	11 f0       	breq	.+4      	; 0xa94 <cygANT_SendBurstTransferPackage+0x88>
     a90:	80 5e       	subi	r24, 0xE0	; 224
     a92:	01 c0       	rjmp	.+2      	; 0xa96 <cygANT_SendBurstTransferPackage+0x8a>
     a94:	80 e2       	ldi	r24, 0x20	; 32
     a96:	89 83       	std	Y+1, r24	; 0x01
     a98:	e9 da       	rcall	.-2606   	; 0x6c <Serial_Put_Tx_Buffer>
     a9a:	01 50       	subi	r16, 0x01	; 1
     a9c:	10 40       	sbci	r17, 0x00	; 0
     a9e:	89 81       	ldd	r24, Y+1	; 0x01
     aa0:	01 15       	cp	r16, r1
     aa2:	11 05       	cpc	r17, r1
     aa4:	39 f6       	brne	.-114    	; 0xa34 <cygANT_SendBurstTransferPackage+0x28>
     aa6:	80 e0       	ldi	r24, 0x00	; 0
     aa8:	90 e0       	ldi	r25, 0x00	; 0
     aaa:	0f 90       	pop	r0
     aac:	cf 91       	pop	r28
     aae:	df 91       	pop	r29
     ab0:	1f 91       	pop	r17
     ab2:	0f 91       	pop	r16
     ab4:	ff 90       	pop	r15
     ab6:	ef 90       	pop	r14
     ab8:	df 90       	pop	r13
     aba:	bf 90       	pop	r11
     abc:	af 90       	pop	r10
     abe:	08 95       	ret

00000ac0 <cygANT_GetRxATNMsg>:
     ac0:	80 e3       	ldi	r24, 0x30	; 48
     ac2:	91 e0       	ldi	r25, 0x01	; 1
     ac4:	08 95       	ret

00000ac6 <cygANT_Init>:
     ac6:	80 93 33 01 	sts	0x0133, r24
     aca:	81 e0       	ldi	r24, 0x01	; 1
     acc:	08 95       	ret

00000ace <cygANT_Deinit>:
     ace:	08 95       	ret

00000ad0 <cygANT_ProcessMessage>:
     ad0:	00 97       	sbiw	r24, 0x00	; 0
     ad2:	09 f4       	brne	.+2      	; 0xad6 <cygANT_ProcessMessage+0x6>
     ad4:	51 c0       	rjmp	.+162    	; 0xb78 <cygANT_ProcessMessage+0xa8>
     ad6:	dc 01       	movw	r26, r24
     ad8:	11 96       	adiw	r26, 0x01	; 1
     ada:	11 96       	adiw	r26, 0x01	; 1
     adc:	8c 91       	ld	r24, X
     ade:	11 97       	sbiw	r26, 0x01	; 1
     ae0:	80 93 30 01 	sts	0x0130, r24
     ae4:	b0 93 32 01 	sts	0x0132, r27
     ae8:	a0 93 31 01 	sts	0x0131, r26
     aec:	80 34       	cpi	r24, 0x40	; 64
     aee:	09 f0       	breq	.+2      	; 0xaf2 <cygANT_ProcessMessage+0x22>
     af0:	43 c0       	rjmp	.+134    	; 0xb78 <cygANT_ProcessMessage+0xa8>
     af2:	12 96       	adiw	r26, 0x02	; 2
     af4:	2c 91       	ld	r18, X
     af6:	12 97       	sbiw	r26, 0x02	; 2
     af8:	30 e0       	ldi	r19, 0x00	; 0
     afa:	f9 01       	movw	r30, r18
     afc:	54 e0       	ldi	r21, 0x04	; 4
     afe:	ee 0f       	add	r30, r30
     b00:	ff 1f       	adc	r31, r31
     b02:	5a 95       	dec	r21
     b04:	e1 f7       	brne	.-8      	; 0xafe <cygANT_ProcessMessage+0x2e>
     b06:	e2 1b       	sub	r30, r18
     b08:	f3 0b       	sbc	r31, r19
     b0a:	ee 5a       	subi	r30, 0xAE	; 174
     b0c:	fe 4f       	sbci	r31, 0xFE	; 254
     b0e:	91 81       	ldd	r25, Z+1	; 0x01
     b10:	13 96       	adiw	r26, 0x03	; 3
     b12:	8c 91       	ld	r24, X
     b14:	13 97       	sbiw	r26, 0x03	; 3
     b16:	98 17       	cp	r25, r24
     b18:	41 f4       	brne	.+16     	; 0xb2a <cygANT_ProcessMessage+0x5a>
     b1a:	81 e0       	ldi	r24, 0x01	; 1
     b1c:	90 e0       	ldi	r25, 0x00	; 0
     b1e:	42 81       	ldd	r20, Z+2	; 0x02
     b20:	40 34       	cpi	r20, 0x40	; 64
     b22:	29 f4       	brne	.+10     	; 0xb2e <cygANT_ProcessMessage+0x5e>
     b24:	80 e0       	ldi	r24, 0x00	; 0
     b26:	90 e0       	ldi	r25, 0x00	; 0
     b28:	02 c0       	rjmp	.+4      	; 0xb2e <cygANT_ProcessMessage+0x5e>
     b2a:	81 e0       	ldi	r24, 0x01	; 1
     b2c:	90 e0       	ldi	r25, 0x00	; 0
     b2e:	f9 01       	movw	r30, r18
     b30:	44 e0       	ldi	r20, 0x04	; 4
     b32:	ee 0f       	add	r30, r30
     b34:	ff 1f       	adc	r31, r31
     b36:	4a 95       	dec	r20
     b38:	e1 f7       	brne	.-8      	; 0xb32 <cygANT_ProcessMessage+0x62>
     b3a:	e2 1b       	sub	r30, r18
     b3c:	f3 0b       	sbc	r31, r19
     b3e:	ee 5a       	subi	r30, 0xAE	; 174
     b40:	fe 4f       	sbci	r31, 0xFE	; 254
     b42:	84 83       	std	Z+4, r24	; 0x04
     b44:	00 97       	sbiw	r24, 0x00	; 0
     b46:	c1 f4       	brne	.+48     	; 0xb78 <cygANT_ProcessMessage+0xa8>
     b48:	14 96       	adiw	r26, 0x04	; 4
     b4a:	8c 91       	ld	r24, X
     b4c:	14 97       	sbiw	r26, 0x04	; 4
     b4e:	87 31       	cpi	r24, 0x17	; 23
     b50:	30 f4       	brcc	.+12     	; 0xb5e <cygANT_ProcessMessage+0x8e>
     b52:	85 31       	cpi	r24, 0x15	; 21
     b54:	30 f4       	brcc	.+12     	; 0xb62 <cygANT_ProcessMessage+0x92>
     b56:	85 50       	subi	r24, 0x05	; 5
     b58:	83 30       	cpi	r24, 0x03	; 3
     b5a:	70 f4       	brcc	.+28     	; 0xb78 <cygANT_ProcessMessage+0xa8>
     b5c:	02 c0       	rjmp	.+4      	; 0xb62 <cygANT_ProcessMessage+0x92>
     b5e:	8f 31       	cpi	r24, 0x1F	; 31
     b60:	59 f4       	brne	.+22     	; 0xb78 <cygANT_ProcessMessage+0xa8>
     b62:	f9 01       	movw	r30, r18
     b64:	b4 e0       	ldi	r27, 0x04	; 4
     b66:	ee 0f       	add	r30, r30
     b68:	ff 1f       	adc	r31, r31
     b6a:	ba 95       	dec	r27
     b6c:	e1 f7       	brne	.-8      	; 0xb66 <cygANT_ProcessMessage+0x96>
     b6e:	e2 1b       	sub	r30, r18
     b70:	f3 0b       	sbc	r31, r19
     b72:	ee 5a       	subi	r30, 0xAE	; 174
     b74:	fe 4f       	sbci	r31, 0xFE	; 254
     b76:	14 82       	std	Z+4, r1	; 0x04
     b78:	08 95       	ret

00000b7a <cygANT_ProcessByte>:
     b7a:	90 91 16 01 	lds	r25, 0x0116
     b7e:	99 23       	and	r25, r25
     b80:	71 f4       	brne	.+28     	; 0xb9e <cygANT_ProcessByte+0x24>
     b82:	84 3a       	cpi	r24, 0xA4	; 164
     b84:	09 f0       	breq	.+2      	; 0xb88 <cygANT_ProcessByte+0xe>
     b86:	3f c0       	rjmp	.+126    	; 0xc06 <cygANT_ProcessByte+0x8c>
     b88:	80 93 17 01 	sts	0x0117, r24
     b8c:	91 e0       	ldi	r25, 0x01	; 1
     b8e:	90 93 16 01 	sts	0x0116, r25
     b92:	80 93 2e 01 	sts	0x012E, r24
     b96:	82 e0       	ldi	r24, 0x02	; 2
     b98:	80 93 2f 01 	sts	0x012F, r24
     b9c:	08 95       	ret
     b9e:	20 91 2e 01 	lds	r18, 0x012E
     ba2:	91 30       	cpi	r25, 0x01	; 1
     ba4:	c9 f4       	brne	.+50     	; 0xbd8 <cygANT_ProcessByte+0x5e>
     ba6:	80 93 18 01 	sts	0x0118, r24
     baa:	32 e0       	ldi	r19, 0x02	; 2
     bac:	30 93 16 01 	sts	0x0116, r19
     bb0:	48 2f       	mov	r20, r24
     bb2:	4d 5f       	subi	r20, 0xFD	; 253
     bb4:	40 93 2f 01 	sts	0x012F, r20
     bb8:	28 27       	eor	r18, r24
     bba:	20 93 2e 01 	sts	0x012E, r18
     bbe:	48 31       	cpi	r20, 0x18	; 24
     bc0:	10 f1       	brcs	.+68     	; 0xc06 <cygANT_ProcessByte+0x8c>
     bc2:	84 3a       	cpi	r24, 0xA4	; 164
     bc4:	d1 f4       	brne	.+52     	; 0xbfa <cygANT_ProcessByte+0x80>
     bc6:	80 93 17 01 	sts	0x0117, r24
     bca:	80 93 2e 01 	sts	0x012E, r24
     bce:	30 93 2f 01 	sts	0x012F, r19
     bd2:	90 93 16 01 	sts	0x0116, r25
     bd6:	08 95       	ret
     bd8:	e9 2f       	mov	r30, r25
     bda:	f0 e0       	ldi	r31, 0x00	; 0
     bdc:	e9 5e       	subi	r30, 0xE9	; 233
     bde:	fe 4f       	sbci	r31, 0xFE	; 254
     be0:	80 83       	st	Z, r24
     be2:	82 27       	eor	r24, r18
     be4:	80 93 2e 01 	sts	0x012E, r24
     be8:	20 91 2f 01 	lds	r18, 0x012F
     bec:	92 17       	cp	r25, r18
     bee:	40 f0       	brcs	.+16     	; 0xc00 <cygANT_ProcessByte+0x86>
     bf0:	88 23       	and	r24, r24
     bf2:	19 f4       	brne	.+6      	; 0xbfa <cygANT_ProcessByte+0x80>
     bf4:	87 e1       	ldi	r24, 0x17	; 23
     bf6:	91 e0       	ldi	r25, 0x01	; 1
     bf8:	6b df       	rcall	.-298    	; 0xad0 <cygANT_ProcessMessage>
     bfa:	10 92 16 01 	sts	0x0116, r1
     bfe:	08 95       	ret
     c00:	9f 5f       	subi	r25, 0xFF	; 255
     c02:	90 93 16 01 	sts	0x0116, r25
     c06:	08 95       	ret

00000c08 <cygInitPlatform>:
     c08:	54 9a       	sbi	0x0a, 4	; 10
     c0a:	5c 9a       	sbi	0x0b, 4	; 11
     c0c:	08 95       	ret

00000c0e <main>:
     c0e:	2f 92       	push	r2
     c10:	3f 92       	push	r3
     c12:	4f 92       	push	r4
     c14:	5f 92       	push	r5
     c16:	6f 92       	push	r6
     c18:	7f 92       	push	r7
     c1a:	8f 92       	push	r8
     c1c:	9f 92       	push	r9
     c1e:	af 92       	push	r10
     c20:	bf 92       	push	r11
     c22:	cf 92       	push	r12
     c24:	df 92       	push	r13
     c26:	ef 92       	push	r14
     c28:	ff 92       	push	r15
     c2a:	0f 93       	push	r16
     c2c:	1f 93       	push	r17
     c2e:	df 93       	push	r29
     c30:	cf 93       	push	r28
     c32:	cd b7       	in	r28, 0x3d	; 61
     c34:	de b7       	in	r29, 0x3e	; 62
     c36:	28 97       	sbiw	r28, 0x08	; 8
     c38:	0f b6       	in	r0, 0x3f	; 63
     c3a:	f8 94       	cli
     c3c:	de bf       	out	0x3e, r29	; 62
     c3e:	0f be       	out	0x3f, r0	; 63
     c40:	cd bf       	out	0x3d, r28	; 61
     c42:	f8 94       	cli
     c44:	e1 df       	rcall	.-62     	; 0xc08 <cygInitPlatform>
     c46:	36 d1       	rcall	.+620    	; 0xeb4 <cygOpenANT>
     c48:	a1 d1       	rcall	.+834    	; 0xf8c <cygOpenClock>
     c4a:	10 92 45 01 	sts	0x0145, r1
     c4e:	10 92 44 01 	sts	0x0144, r1
     c52:	10 92 47 01 	sts	0x0147, r1
     c56:	10 92 46 01 	sts	0x0146, r1
     c5a:	10 92 49 01 	sts	0x0149, r1
     c5e:	10 92 48 01 	sts	0x0148, r1
     c62:	10 92 4b 01 	sts	0x014B, r1
     c66:	10 92 4a 01 	sts	0x014A, r1
     c6a:	10 92 70 01 	sts	0x0170, r1
     c6e:	78 94       	sei
     c70:	63 e6       	ldi	r22, 0x63	; 99
     c72:	e6 2e       	mov	r14, r22
     c74:	f1 2c       	mov	r15, r1
     c76:	5f e5       	ldi	r21, 0x5F	; 95
     c78:	c5 2e       	mov	r12, r21
     c7a:	d1 2c       	mov	r13, r1
     c7c:	8e 01       	movw	r16, r28
     c7e:	0f 5f       	subi	r16, 0xFF	; 255
     c80:	1f 4f       	sbci	r17, 0xFF	; 255
     c82:	46 e5       	ldi	r20, 0x56	; 86
     c84:	a4 2e       	mov	r10, r20
     c86:	b1 2c       	mov	r11, r1
     c88:	32 e5       	ldi	r19, 0x52	; 82
     c8a:	83 2e       	mov	r8, r19
     c8c:	91 2c       	mov	r9, r1
     c8e:	2d e4       	ldi	r18, 0x4D	; 77
     c90:	62 2e       	mov	r6, r18
     c92:	71 2c       	mov	r7, r1
     c94:	97 e6       	ldi	r25, 0x67	; 103
     c96:	49 2e       	mov	r4, r25
     c98:	51 2c       	mov	r5, r1
     c9a:	8b e6       	ldi	r24, 0x6B	; 107
     c9c:	28 2e       	mov	r2, r24
     c9e:	31 2c       	mov	r3, r1
     ca0:	80 91 44 01 	lds	r24, 0x0144
     ca4:	90 91 45 01 	lds	r25, 0x0145
     ca8:	83 36       	cpi	r24, 0x63	; 99
     caa:	91 05       	cpc	r25, r1
     cac:	09 f4       	brne	.+2      	; 0xcb0 <main+0xa2>
     cae:	63 c0       	rjmp	.+198    	; 0xd76 <main+0x168>
     cb0:	84 36       	cpi	r24, 0x64	; 100
     cb2:	91 05       	cpc	r25, r1
     cb4:	a8 f4       	brcc	.+42     	; 0xce0 <main+0xd2>
     cb6:	82 35       	cpi	r24, 0x52	; 82
     cb8:	91 05       	cpc	r25, r1
     cba:	a9 f1       	breq	.+106    	; 0xd26 <main+0x118>
     cbc:	83 35       	cpi	r24, 0x53	; 83
     cbe:	91 05       	cpc	r25, r1
     cc0:	38 f4       	brcc	.+14     	; 0xcd0 <main+0xc2>
     cc2:	00 97       	sbiw	r24, 0x00	; 0
     cc4:	d1 f0       	breq	.+52     	; 0xcfa <main+0xec>
     cc6:	8d 34       	cpi	r24, 0x4D	; 77
     cc8:	91 05       	cpc	r25, r1
     cca:	09 f0       	breq	.+2      	; 0xcce <main+0xc0>
     ccc:	82 c0       	rjmp	.+260    	; 0xdd2 <main+0x1c4>
     cce:	1b c0       	rjmp	.+54     	; 0xd06 <main+0xf8>
     cd0:	86 35       	cpi	r24, 0x56	; 86
     cd2:	91 05       	cpc	r25, r1
     cd4:	99 f1       	breq	.+102    	; 0xd3c <main+0x12e>
     cd6:	8f 35       	cpi	r24, 0x5F	; 95
     cd8:	91 05       	cpc	r25, r1
     cda:	09 f0       	breq	.+2      	; 0xcde <main+0xd0>
     cdc:	7a c0       	rjmp	.+244    	; 0xdd2 <main+0x1c4>
     cde:	3c c0       	rjmp	.+120    	; 0xd58 <main+0x14a>
     ce0:	8b 36       	cpi	r24, 0x6B	; 107
     ce2:	91 05       	cpc	r25, r1
     ce4:	09 f4       	brne	.+2      	; 0xce8 <main+0xda>
     ce6:	60 c0       	rjmp	.+192    	; 0xda8 <main+0x19a>
     ce8:	8f 36       	cpi	r24, 0x6F	; 111
     cea:	91 05       	cpc	r25, r1
     cec:	09 f4       	brne	.+2      	; 0xcf0 <main+0xe2>
     cee:	69 c0       	rjmp	.+210    	; 0xdc2 <main+0x1b4>
     cf0:	87 36       	cpi	r24, 0x67	; 103
     cf2:	91 05       	cpc	r25, r1
     cf4:	09 f0       	breq	.+2      	; 0xcf8 <main+0xea>
     cf6:	6d c0       	rjmp	.+218    	; 0xdd2 <main+0x1c4>
     cf8:	4b c0       	rjmp	.+150    	; 0xd90 <main+0x182>
     cfa:	10 92 70 01 	sts	0x0170, r1
     cfe:	70 92 45 01 	sts	0x0145, r7
     d02:	60 92 44 01 	sts	0x0144, r6
     d06:	80 91 70 01 	lds	r24, 0x0170
     d0a:	88 23       	and	r24, r24
     d0c:	09 f0       	breq	.+2      	; 0xd10 <main+0x102>
     d0e:	65 c0       	rjmp	.+202    	; 0xdda <main+0x1cc>
     d10:	c8 01       	movw	r24, r16
     d12:	4a e0       	ldi	r20, 0x0A	; 10
     d14:	50 e0       	ldi	r21, 0x00	; 0
     d16:	60 e0       	ldi	r22, 0x00	; 0
     d18:	70 e0       	ldi	r23, 0x00	; 0
     d1a:	40 d1       	rcall	.+640    	; 0xf9c <timer_set>
     d1c:	5a dd       	rcall	.-1356   	; 0x7d2 <cygANT_ResetSystem>
     d1e:	90 92 45 01 	sts	0x0145, r9
     d22:	80 92 44 01 	sts	0x0144, r8
     d26:	c8 01       	movw	r24, r16
     d28:	65 d1       	rcall	.+714    	; 0xff4 <timer_expired>
     d2a:	00 97       	sbiw	r24, 0x00	; 0
     d2c:	09 f4       	brne	.+2      	; 0xd30 <main+0x122>
     d2e:	55 c0       	rjmp	.+170    	; 0xdda <main+0x1cc>
     d30:	80 e0       	ldi	r24, 0x00	; 0
     d32:	e3 d9       	rcall	.-3130   	; 0xfa <cygANT_UnAssignChannel>
     d34:	b0 92 45 01 	sts	0x0145, r11
     d38:	a0 92 44 01 	sts	0x0144, r10
     d3c:	82 e5       	ldi	r24, 0x52	; 82
     d3e:	91 e0       	ldi	r25, 0x01	; 1
     d40:	c5 d9       	rcall	.-3190   	; 0xcc <cygANT_WaitForResponse>
     d42:	00 97       	sbiw	r24, 0x00	; 0
     d44:	09 f0       	breq	.+2      	; 0xd48 <main+0x13a>
     d46:	49 c0       	rjmp	.+146    	; 0xdda <main+0x1cc>
     d48:	80 e0       	ldi	r24, 0x00	; 0
     d4a:	60 e1       	ldi	r22, 0x10	; 16
     d4c:	40 e0       	ldi	r20, 0x00	; 0
     d4e:	ff d9       	rcall	.-3074   	; 0x14e <cygANT_AssignChannel>
     d50:	d0 92 45 01 	sts	0x0145, r13
     d54:	c0 92 44 01 	sts	0x0144, r12
     d58:	82 e5       	ldi	r24, 0x52	; 82
     d5a:	91 e0       	ldi	r25, 0x01	; 1
     d5c:	b7 d9       	rcall	.-3218   	; 0xcc <cygANT_WaitForResponse>
     d5e:	00 97       	sbiw	r24, 0x00	; 0
     d60:	e1 f5       	brne	.+120    	; 0xdda <main+0x1cc>
     d62:	80 e0       	ldi	r24, 0x00	; 0
     d64:	61 e2       	ldi	r22, 0x21	; 33
     d66:	70 e0       	ldi	r23, 0x00	; 0
     d68:	41 e0       	ldi	r20, 0x01	; 1
     d6a:	21 e0       	ldi	r18, 0x01	; 1
     d6c:	1f da       	rcall	.-3010   	; 0x1ac <cygANT_SetChannelId>
     d6e:	f0 92 45 01 	sts	0x0145, r15
     d72:	e0 92 44 01 	sts	0x0144, r14
     d76:	82 e5       	ldi	r24, 0x52	; 82
     d78:	91 e0       	ldi	r25, 0x01	; 1
     d7a:	a8 d9       	rcall	.-3248   	; 0xcc <cygANT_WaitForResponse>
     d7c:	00 97       	sbiw	r24, 0x00	; 0
     d7e:	69 f5       	brne	.+90     	; 0xdda <main+0x1cc>
     d80:	80 e0       	ldi	r24, 0x00	; 0
     d82:	60 e0       	ldi	r22, 0x00	; 0
     d84:	70 e2       	ldi	r23, 0x20	; 32
     d86:	45 da       	rcall	.-2934   	; 0x212 <cygANT_SetChannelPeriod>
     d88:	50 92 45 01 	sts	0x0145, r5
     d8c:	40 92 44 01 	sts	0x0144, r4
     d90:	82 e5       	ldi	r24, 0x52	; 82
     d92:	91 e0       	ldi	r25, 0x01	; 1
     d94:	9b d9       	rcall	.-3274   	; 0xcc <cygANT_WaitForResponse>
     d96:	00 97       	sbiw	r24, 0x00	; 0
     d98:	01 f5       	brne	.+64     	; 0xdda <main+0x1cc>
     d9a:	80 e0       	ldi	r24, 0x00	; 0
     d9c:	62 e4       	ldi	r22, 0x42	; 66
     d9e:	95 da       	rcall	.-2774   	; 0x2ca <cygANT_ChannelRFFreq>
     da0:	30 92 45 01 	sts	0x0145, r3
     da4:	20 92 44 01 	sts	0x0144, r2
     da8:	82 e5       	ldi	r24, 0x52	; 82
     daa:	91 e0       	ldi	r25, 0x01	; 1
     dac:	8f d9       	rcall	.-3298   	; 0xcc <cygANT_WaitForResponse>
     dae:	00 97       	sbiw	r24, 0x00	; 0
     db0:	a1 f4       	brne	.+40     	; 0xdda <main+0x1cc>
     db2:	80 e0       	ldi	r24, 0x00	; 0
     db4:	19 dd       	rcall	.-1486   	; 0x7e8 <cygANT_OpenChannel>
     db6:	8f e6       	ldi	r24, 0x6F	; 111
     db8:	90 e0       	ldi	r25, 0x00	; 0
     dba:	90 93 45 01 	sts	0x0145, r25
     dbe:	80 93 44 01 	sts	0x0144, r24
     dc2:	82 e5       	ldi	r24, 0x52	; 82
     dc4:	91 e0       	ldi	r25, 0x01	; 1
     dc6:	82 d9       	rcall	.-3324   	; 0xcc <cygANT_WaitForResponse>
     dc8:	00 97       	sbiw	r24, 0x00	; 0
     dca:	39 f4       	brne	.+14     	; 0xdda <main+0x1cc>
     dcc:	81 e0       	ldi	r24, 0x01	; 1
     dce:	80 93 70 01 	sts	0x0170, r24
     dd2:	10 92 45 01 	sts	0x0145, r1
     dd6:	10 92 44 01 	sts	0x0144, r1
     dda:	80 91 48 01 	lds	r24, 0x0148
     dde:	90 91 49 01 	lds	r25, 0x0149
     de2:	00 97       	sbiw	r24, 0x00	; 0
     de4:	21 f0       	breq	.+8      	; 0xdee <main+0x1e0>
     de6:	8f 37       	cpi	r24, 0x7F	; 127
     de8:	91 05       	cpc	r25, r1
     dea:	81 f4       	brne	.+32     	; 0xe0c <main+0x1fe>
     dec:	06 c0       	rjmp	.+12     	; 0xdfa <main+0x1ec>
     dee:	8f e7       	ldi	r24, 0x7F	; 127
     df0:	90 e0       	ldi	r25, 0x00	; 0
     df2:	90 93 49 01 	sts	0x0149, r25
     df6:	80 93 48 01 	sts	0x0148, r24
     dfa:	80 91 70 01 	lds	r24, 0x0170
     dfe:	81 30       	cpi	r24, 0x01	; 1
     e00:	49 f4       	brne	.+18     	; 0xe14 <main+0x206>
     e02:	80 e0       	ldi	r24, 0x00	; 0
     e04:	60 e0       	ldi	r22, 0x00	; 0
     e06:	71 e0       	ldi	r23, 0x01	; 1
     e08:	b1 dd       	rcall	.-1182   	; 0x96c <cygANT_SendBroadcastData>
     e0a:	f1 cf       	rjmp	.-30     	; 0xdee <main+0x1e0>
     e0c:	10 92 49 01 	sts	0x0149, r1
     e10:	10 92 48 01 	sts	0x0148, r1
     e14:	80 91 46 01 	lds	r24, 0x0146
     e18:	90 91 47 01 	lds	r25, 0x0147
     e1c:	8e 38       	cpi	r24, 0x8E	; 142
     e1e:	91 05       	cpc	r25, r1
     e20:	59 f0       	breq	.+22     	; 0xe38 <main+0x22a>
     e22:	8f 38       	cpi	r24, 0x8F	; 143
     e24:	91 05       	cpc	r25, r1
     e26:	91 f0       	breq	.+36     	; 0xe4c <main+0x23e>
     e28:	00 97       	sbiw	r24, 0x00	; 0
     e2a:	f1 f4       	brne	.+60     	; 0xe68 <main+0x25a>
     e2c:	8e e8       	ldi	r24, 0x8E	; 142
     e2e:	90 e0       	ldi	r25, 0x00	; 0
     e30:	90 93 47 01 	sts	0x0147, r25
     e34:	80 93 46 01 	sts	0x0146, r24
     e38:	5b d0       	rcall	.+182    	; 0xef0 <cygRcvANTDataIsReady>
     e3a:	00 97       	sbiw	r24, 0x00	; 0
     e3c:	09 f4       	brne	.+2      	; 0xe40 <main+0x232>
     e3e:	30 cf       	rjmp	.-416    	; 0xca0 <main+0x92>
     e40:	8f e8       	ldi	r24, 0x8F	; 143
     e42:	90 e0       	ldi	r25, 0x00	; 0
     e44:	90 93 47 01 	sts	0x0147, r25
     e48:	80 93 46 01 	sts	0x0146, r24
     e4c:	88 e0       	ldi	r24, 0x08	; 8
     e4e:	91 e0       	ldi	r25, 0x01	; 1
     e50:	0f d1       	rcall	.+542    	; 0x1070 <fgetc>
     e52:	90 93 4d 01 	sts	0x014D, r25
     e56:	80 93 4c 01 	sts	0x014C, r24
     e5a:	2f ef       	ldi	r18, 0xFF	; 255
     e5c:	8f 3f       	cpi	r24, 0xFF	; 255
     e5e:	92 07       	cpc	r25, r18
     e60:	09 f4       	brne	.+2      	; 0xe64 <main+0x256>
     e62:	1e cf       	rjmp	.-452    	; 0xca0 <main+0x92>
     e64:	8a de       	rcall	.-748    	; 0xb7a <cygANT_ProcessByte>
     e66:	e2 cf       	rjmp	.-60     	; 0xe2c <main+0x21e>
     e68:	10 92 47 01 	sts	0x0147, r1
     e6c:	10 92 46 01 	sts	0x0146, r1
     e70:	17 cf       	rjmp	.-466    	; 0xca0 <main+0x92>

00000e72 <__vector_6>:
     e72:	1f 92       	push	r1
     e74:	0f 92       	push	r0
     e76:	0f b6       	in	r0, 0x3f	; 63
     e78:	0f 92       	push	r0
     e7a:	11 24       	eor	r1, r1
     e7c:	8f 93       	push	r24
     e7e:	88 e1       	ldi	r24, 0x18	; 24
     e80:	0f b6       	in	r0, 0x3f	; 63
     e82:	f8 94       	cli
     e84:	80 93 60 00 	sts	0x0060, r24
     e88:	10 92 60 00 	sts	0x0060, r1
     e8c:	0f be       	out	0x3f, r0	; 63
     e8e:	8f 91       	pop	r24
     e90:	0f 90       	pop	r0
     e92:	0f be       	out	0x3f, r0	; 63
     e94:	0f 90       	pop	r0
     e96:	1f 90       	pop	r1
     e98:	18 95       	reti

00000e9a <cyg_ant_usart_putc>:
     e9a:	90 91 c0 00 	lds	r25, 0x00C0
     e9e:	95 ff       	sbrs	r25, 5
     ea0:	fc cf       	rjmp	.-8      	; 0xe9a <cyg_ant_usart_putc>
     ea2:	80 93 c6 00 	sts	0x00C6, r24
     ea6:	80 e0       	ldi	r24, 0x00	; 0
     ea8:	90 e0       	ldi	r25, 0x00	; 0
     eaa:	08 95       	ret

00000eac <cyg_ant_usart_getc>:
     eac:	80 91 c6 00 	lds	r24, 0x00C6
     eb0:	90 e0       	ldi	r25, 0x00	; 0
     eb2:	08 95       	ret

00000eb4 <cygOpenANT>:
     eb4:	10 92 c5 00 	sts	0x00C5, r1
     eb8:	8b e0       	ldi	r24, 0x0B	; 11
     eba:	80 93 c4 00 	sts	0x00C4, r24
     ebe:	88 e1       	ldi	r24, 0x18	; 24
     ec0:	80 93 c1 00 	sts	0x00C1, r24
     ec4:	8e e0       	ldi	r24, 0x0E	; 14
     ec6:	80 93 c2 00 	sts	0x00C2, r24
     eca:	54 9a       	sbi	0x0a, 4	; 10
     ecc:	5c 98       	cbi	0x0b, 4	; 11
     ece:	3a 9a       	sbi	0x07, 2	; 7
     ed0:	42 9a       	sbi	0x08, 2	; 8
     ed2:	3b 9a       	sbi	0x07, 3	; 7
     ed4:	43 98       	cbi	0x08, 3	; 8
     ed6:	52 98       	cbi	0x0a, 2	; 10
     ed8:	5a 98       	cbi	0x0b, 2	; 11
     eda:	53 9a       	sbi	0x0a, 3	; 10
     edc:	5b 98       	cbi	0x0b, 3	; 11
     ede:	8f ef       	ldi	r24, 0xFF	; 255
     ee0:	93 e2       	ldi	r25, 0x23	; 35
     ee2:	01 97       	sbiw	r24, 0x01	; 1
     ee4:	f1 f7       	brne	.-4      	; 0xee2 <cygOpenANT+0x2e>
     ee6:	00 c0       	rjmp	.+0      	; 0xee8 <cygOpenANT+0x34>
     ee8:	00 00       	nop
     eea:	5b 9a       	sbi	0x0b, 3	; 11
     eec:	08 95       	ret

00000eee <cygCloseANT>:
     eee:	08 95       	ret

00000ef0 <cygRcvANTDataIsReady>:
     ef0:	20 91 c0 00 	lds	r18, 0x00C0
     ef4:	30 e0       	ldi	r19, 0x00	; 0
     ef6:	20 78       	andi	r18, 0x80	; 128
     ef8:	30 70       	andi	r19, 0x00	; 0
     efa:	c9 01       	movw	r24, r18
     efc:	08 95       	ret

00000efe <__vector_13>:
     efe:	1f 92       	push	r1
     f00:	0f 92       	push	r0
     f02:	0f b6       	in	r0, 0x3f	; 63
     f04:	0f 92       	push	r0
     f06:	11 24       	eor	r1, r1
     f08:	8f 93       	push	r24
     f0a:	9f 93       	push	r25
     f0c:	af 93       	push	r26
     f0e:	bf 93       	push	r27
     f10:	88 e1       	ldi	r24, 0x18	; 24
     f12:	80 93 84 00 	sts	0x0084, r24
     f16:	8c ef       	ldi	r24, 0xFC	; 252
     f18:	80 93 85 00 	sts	0x0085, r24
     f1c:	80 91 4e 01 	lds	r24, 0x014E
     f20:	90 91 4f 01 	lds	r25, 0x014F
     f24:	a0 91 50 01 	lds	r26, 0x0150
     f28:	b0 91 51 01 	lds	r27, 0x0151
     f2c:	01 96       	adiw	r24, 0x01	; 1
     f2e:	a1 1d       	adc	r26, r1
     f30:	b1 1d       	adc	r27, r1
     f32:	80 93 4e 01 	sts	0x014E, r24
     f36:	90 93 4f 01 	sts	0x014F, r25
     f3a:	a0 93 50 01 	sts	0x0150, r26
     f3e:	b0 93 51 01 	sts	0x0151, r27
     f42:	bf 91       	pop	r27
     f44:	af 91       	pop	r26
     f46:	9f 91       	pop	r25
     f48:	8f 91       	pop	r24
     f4a:	0f 90       	pop	r0
     f4c:	0f be       	out	0x3f, r0	; 63
     f4e:	0f 90       	pop	r0
     f50:	1f 90       	pop	r1
     f52:	18 95       	reti

00000f54 <clock_init>:
     f54:	ef e6       	ldi	r30, 0x6F	; 111
     f56:	f0 e0       	ldi	r31, 0x00	; 0
     f58:	80 81       	ld	r24, Z
     f5a:	81 60       	ori	r24, 0x01	; 1
     f5c:	80 83       	st	Z, r24
     f5e:	e1 e8       	ldi	r30, 0x81	; 129
     f60:	f0 e0       	ldi	r31, 0x00	; 0
     f62:	80 81       	ld	r24, Z
     f64:	82 60       	ori	r24, 0x02	; 2
     f66:	80 83       	st	Z, r24
     f68:	88 e1       	ldi	r24, 0x18	; 24
     f6a:	80 93 84 00 	sts	0x0084, r24
     f6e:	8c ef       	ldi	r24, 0xFC	; 252
     f70:	80 93 85 00 	sts	0x0085, r24
     f74:	08 95       	ret

00000f76 <cygClockTime>:
     f76:	20 91 4e 01 	lds	r18, 0x014E
     f7a:	30 91 4f 01 	lds	r19, 0x014F
     f7e:	40 91 50 01 	lds	r20, 0x0150
     f82:	50 91 51 01 	lds	r21, 0x0151
     f86:	b9 01       	movw	r22, r18
     f88:	ca 01       	movw	r24, r20
     f8a:	08 95       	ret

00000f8c <cygOpenClock>:
     f8c:	e3 df       	rcall	.-58     	; 0xf54 <clock_init>
     f8e:	08 95       	ret

00000f90 <cygCloseClock>:
     f90:	ef e6       	ldi	r30, 0x6F	; 111
     f92:	f0 e0       	ldi	r31, 0x00	; 0
     f94:	80 81       	ld	r24, Z
     f96:	8e 7f       	andi	r24, 0xFE	; 254
     f98:	80 83       	st	Z, r24
     f9a:	08 95       	ret

00000f9c <timer_set>:
     f9c:	cf 93       	push	r28
     f9e:	df 93       	push	r29
     fa0:	ec 01       	movw	r28, r24
     fa2:	4c 83       	std	Y+4, r20	; 0x04
     fa4:	5d 83       	std	Y+5, r21	; 0x05
     fa6:	6e 83       	std	Y+6, r22	; 0x06
     fa8:	7f 83       	std	Y+7, r23	; 0x07
     faa:	e5 df       	rcall	.-54     	; 0xf76 <cygClockTime>
     fac:	68 83       	st	Y, r22
     fae:	79 83       	std	Y+1, r23	; 0x01
     fb0:	8a 83       	std	Y+2, r24	; 0x02
     fb2:	9b 83       	std	Y+3, r25	; 0x03
     fb4:	df 91       	pop	r29
     fb6:	cf 91       	pop	r28
     fb8:	08 95       	ret

00000fba <timer_reset>:
     fba:	fc 01       	movw	r30, r24
     fbc:	20 81       	ld	r18, Z
     fbe:	31 81       	ldd	r19, Z+1	; 0x01
     fc0:	42 81       	ldd	r20, Z+2	; 0x02
     fc2:	53 81       	ldd	r21, Z+3	; 0x03
     fc4:	64 81       	ldd	r22, Z+4	; 0x04
     fc6:	75 81       	ldd	r23, Z+5	; 0x05
     fc8:	86 81       	ldd	r24, Z+6	; 0x06
     fca:	97 81       	ldd	r25, Z+7	; 0x07
     fcc:	26 0f       	add	r18, r22
     fce:	37 1f       	adc	r19, r23
     fd0:	48 1f       	adc	r20, r24
     fd2:	59 1f       	adc	r21, r25
     fd4:	20 83       	st	Z, r18
     fd6:	31 83       	std	Z+1, r19	; 0x01
     fd8:	42 83       	std	Z+2, r20	; 0x02
     fda:	53 83       	std	Z+3, r21	; 0x03
     fdc:	08 95       	ret

00000fde <timer_restart>:
     fde:	cf 93       	push	r28
     fe0:	df 93       	push	r29
     fe2:	ec 01       	movw	r28, r24
     fe4:	c8 df       	rcall	.-112    	; 0xf76 <cygClockTime>
     fe6:	68 83       	st	Y, r22
     fe8:	79 83       	std	Y+1, r23	; 0x01
     fea:	8a 83       	std	Y+2, r24	; 0x02
     fec:	9b 83       	std	Y+3, r25	; 0x03
     fee:	df 91       	pop	r29
     ff0:	cf 91       	pop	r28
     ff2:	08 95       	ret

00000ff4 <timer_expired>:
     ff4:	cf 93       	push	r28
     ff6:	df 93       	push	r29
     ff8:	ec 01       	movw	r28, r24
     ffa:	bd df       	rcall	.-134    	; 0xf76 <cygClockTime>
     ffc:	28 81       	ld	r18, Y
     ffe:	39 81       	ldd	r19, Y+1	; 0x01
    1000:	4a 81       	ldd	r20, Y+2	; 0x02
    1002:	5b 81       	ldd	r21, Y+3	; 0x03
    1004:	62 1b       	sub	r22, r18
    1006:	73 0b       	sbc	r23, r19
    1008:	84 0b       	sbc	r24, r20
    100a:	95 0b       	sbc	r25, r21
    100c:	6f 5f       	subi	r22, 0xFF	; 255
    100e:	7f 4f       	sbci	r23, 0xFF	; 255
    1010:	8f 4f       	sbci	r24, 0xFF	; 255
    1012:	9f 4f       	sbci	r25, 0xFF	; 255
    1014:	e1 e0       	ldi	r30, 0x01	; 1
    1016:	f0 e0       	ldi	r31, 0x00	; 0
    1018:	2c 81       	ldd	r18, Y+4	; 0x04
    101a:	3d 81       	ldd	r19, Y+5	; 0x05
    101c:	4e 81       	ldd	r20, Y+6	; 0x06
    101e:	5f 81       	ldd	r21, Y+7	; 0x07
    1020:	26 17       	cp	r18, r22
    1022:	37 07       	cpc	r19, r23
    1024:	48 07       	cpc	r20, r24
    1026:	59 07       	cpc	r21, r25
    1028:	10 f0       	brcs	.+4      	; 0x102e <timer_expired+0x3a>
    102a:	e0 e0       	ldi	r30, 0x00	; 0
    102c:	f0 e0       	ldi	r31, 0x00	; 0
    102e:	cf 01       	movw	r24, r30
    1030:	df 91       	pop	r29
    1032:	cf 91       	pop	r28
    1034:	08 95       	ret

00001036 <timer_remaining>:
    1036:	ef 92       	push	r14
    1038:	ff 92       	push	r15
    103a:	0f 93       	push	r16
    103c:	1f 93       	push	r17
    103e:	fc 01       	movw	r30, r24
    1040:	e4 80       	ldd	r14, Z+4	; 0x04
    1042:	f5 80       	ldd	r15, Z+5	; 0x05
    1044:	06 81       	ldd	r16, Z+6	; 0x06
    1046:	17 81       	ldd	r17, Z+7	; 0x07
    1048:	80 81       	ld	r24, Z
    104a:	91 81       	ldd	r25, Z+1	; 0x01
    104c:	a2 81       	ldd	r26, Z+2	; 0x02
    104e:	b3 81       	ldd	r27, Z+3	; 0x03
    1050:	e8 0e       	add	r14, r24
    1052:	f9 1e       	adc	r15, r25
    1054:	0a 1f       	adc	r16, r26
    1056:	1b 1f       	adc	r17, r27
    1058:	8e df       	rcall	.-228    	; 0xf76 <cygClockTime>
    105a:	e6 1a       	sub	r14, r22
    105c:	f7 0a       	sbc	r15, r23
    105e:	08 0b       	sbc	r16, r24
    1060:	19 0b       	sbc	r17, r25
    1062:	b7 01       	movw	r22, r14
    1064:	c8 01       	movw	r24, r16
    1066:	1f 91       	pop	r17
    1068:	0f 91       	pop	r16
    106a:	ff 90       	pop	r15
    106c:	ef 90       	pop	r14
    106e:	08 95       	ret

00001070 <fgetc>:
    1070:	cf 93       	push	r28
    1072:	df 93       	push	r29
    1074:	ec 01       	movw	r28, r24
    1076:	3b 81       	ldd	r19, Y+3	; 0x03
    1078:	30 ff       	sbrs	r19, 0
    107a:	36 c0       	rjmp	.+108    	; 0x10e8 <fgetc+0x78>
    107c:	36 ff       	sbrs	r19, 6
    107e:	09 c0       	rjmp	.+18     	; 0x1092 <fgetc+0x22>
    1080:	3f 7b       	andi	r19, 0xBF	; 191
    1082:	3b 83       	std	Y+3, r19	; 0x03
    1084:	8e 81       	ldd	r24, Y+6	; 0x06
    1086:	9f 81       	ldd	r25, Y+7	; 0x07
    1088:	01 96       	adiw	r24, 0x01	; 1
    108a:	9f 83       	std	Y+7, r25	; 0x07
    108c:	8e 83       	std	Y+6, r24	; 0x06
    108e:	2a 81       	ldd	r18, Y+2	; 0x02
    1090:	29 c0       	rjmp	.+82     	; 0x10e4 <fgetc+0x74>
    1092:	32 ff       	sbrs	r19, 2
    1094:	0f c0       	rjmp	.+30     	; 0x10b4 <fgetc+0x44>
    1096:	e8 81       	ld	r30, Y
    1098:	f9 81       	ldd	r31, Y+1	; 0x01
    109a:	80 81       	ld	r24, Z
    109c:	99 27       	eor	r25, r25
    109e:	87 fd       	sbrc	r24, 7
    10a0:	90 95       	com	r25
    10a2:	00 97       	sbiw	r24, 0x00	; 0
    10a4:	19 f4       	brne	.+6      	; 0x10ac <fgetc+0x3c>
    10a6:	30 62       	ori	r19, 0x20	; 32
    10a8:	3b 83       	std	Y+3, r19	; 0x03
    10aa:	1e c0       	rjmp	.+60     	; 0x10e8 <fgetc+0x78>
    10ac:	31 96       	adiw	r30, 0x01	; 1
    10ae:	f9 83       	std	Y+1, r31	; 0x01
    10b0:	e8 83       	st	Y, r30
    10b2:	11 c0       	rjmp	.+34     	; 0x10d6 <fgetc+0x66>
    10b4:	ea 85       	ldd	r30, Y+10	; 0x0a
    10b6:	fb 85       	ldd	r31, Y+11	; 0x0b
    10b8:	ce 01       	movw	r24, r28
    10ba:	09 95       	icall
    10bc:	97 ff       	sbrs	r25, 7
    10be:	0b c0       	rjmp	.+22     	; 0x10d6 <fgetc+0x66>
    10c0:	2b 81       	ldd	r18, Y+3	; 0x03
    10c2:	3f ef       	ldi	r19, 0xFF	; 255
    10c4:	8f 3f       	cpi	r24, 0xFF	; 255
    10c6:	93 07       	cpc	r25, r19
    10c8:	11 f4       	brne	.+4      	; 0x10ce <fgetc+0x5e>
    10ca:	80 e1       	ldi	r24, 0x10	; 16
    10cc:	01 c0       	rjmp	.+2      	; 0x10d0 <fgetc+0x60>
    10ce:	80 e2       	ldi	r24, 0x20	; 32
    10d0:	82 2b       	or	r24, r18
    10d2:	8b 83       	std	Y+3, r24	; 0x03
    10d4:	09 c0       	rjmp	.+18     	; 0x10e8 <fgetc+0x78>
    10d6:	2e 81       	ldd	r18, Y+6	; 0x06
    10d8:	3f 81       	ldd	r19, Y+7	; 0x07
    10da:	2f 5f       	subi	r18, 0xFF	; 255
    10dc:	3f 4f       	sbci	r19, 0xFF	; 255
    10de:	3f 83       	std	Y+7, r19	; 0x07
    10e0:	2e 83       	std	Y+6, r18	; 0x06
    10e2:	28 2f       	mov	r18, r24
    10e4:	30 e0       	ldi	r19, 0x00	; 0
    10e6:	02 c0       	rjmp	.+4      	; 0x10ec <fgetc+0x7c>
    10e8:	2f ef       	ldi	r18, 0xFF	; 255
    10ea:	3f ef       	ldi	r19, 0xFF	; 255
    10ec:	c9 01       	movw	r24, r18
    10ee:	df 91       	pop	r29
    10f0:	cf 91       	pop	r28
    10f2:	08 95       	ret

000010f4 <fputc>:
    10f4:	0f 93       	push	r16
    10f6:	1f 93       	push	r17
    10f8:	cf 93       	push	r28
    10fa:	df 93       	push	r29
    10fc:	8c 01       	movw	r16, r24
    10fe:	eb 01       	movw	r28, r22
    1100:	8b 81       	ldd	r24, Y+3	; 0x03
    1102:	81 ff       	sbrs	r24, 1
    1104:	1b c0       	rjmp	.+54     	; 0x113c <fputc+0x48>
    1106:	82 ff       	sbrs	r24, 2
    1108:	0d c0       	rjmp	.+26     	; 0x1124 <fputc+0x30>
    110a:	2e 81       	ldd	r18, Y+6	; 0x06
    110c:	3f 81       	ldd	r19, Y+7	; 0x07
    110e:	8c 81       	ldd	r24, Y+4	; 0x04
    1110:	9d 81       	ldd	r25, Y+5	; 0x05
    1112:	28 17       	cp	r18, r24
    1114:	39 07       	cpc	r19, r25
    1116:	64 f4       	brge	.+24     	; 0x1130 <fputc+0x3c>
    1118:	e8 81       	ld	r30, Y
    111a:	f9 81       	ldd	r31, Y+1	; 0x01
    111c:	01 93       	st	Z+, r16
    111e:	f9 83       	std	Y+1, r31	; 0x01
    1120:	e8 83       	st	Y, r30
    1122:	06 c0       	rjmp	.+12     	; 0x1130 <fputc+0x3c>
    1124:	e8 85       	ldd	r30, Y+8	; 0x08
    1126:	f9 85       	ldd	r31, Y+9	; 0x09
    1128:	80 2f       	mov	r24, r16
    112a:	09 95       	icall
    112c:	00 97       	sbiw	r24, 0x00	; 0
    112e:	31 f4       	brne	.+12     	; 0x113c <fputc+0x48>
    1130:	8e 81       	ldd	r24, Y+6	; 0x06
    1132:	9f 81       	ldd	r25, Y+7	; 0x07
    1134:	01 96       	adiw	r24, 0x01	; 1
    1136:	9f 83       	std	Y+7, r25	; 0x07
    1138:	8e 83       	std	Y+6, r24	; 0x06
    113a:	02 c0       	rjmp	.+4      	; 0x1140 <fputc+0x4c>
    113c:	0f ef       	ldi	r16, 0xFF	; 255
    113e:	1f ef       	ldi	r17, 0xFF	; 255
    1140:	c8 01       	movw	r24, r16
    1142:	df 91       	pop	r29
    1144:	cf 91       	pop	r28
    1146:	1f 91       	pop	r17
    1148:	0f 91       	pop	r16
    114a:	08 95       	ret

0000114c <_exit>:
    114c:	f8 94       	cli

0000114e <__stop_program>:
    114e:	ff cf       	rjmp	.-2      	; 0x114e <__stop_program>
